((dp0
S'arm_dbg_args'
p1
S'-via:"c:\\Users\\Daniel\\Documents\\Bird\\build_bird_vc12\\Bird_vc12_arm_debug.via" -qemu'
p2
sS'game-icf'
p3
S''
p4
sS'dist'
p5
NsS'csproj'
p6
g4
sS'module_path_append'
p7
NsS'tizen_x86_dbg_exe'
p8
S'e:\\7.10\\s3e\\makefile_builder\\tool_launcher.exe'
p9
sS'global_path'
p10
S'c:\\users\\daniel\\documents'
p11
sS'system_path'
p12
S'e:\\7.10\\s3e\\makefile_builder'
p13
sS'android_x86_dbg_args'
p14
S'../../tools/DeployTool/DeployTool.exe --dir "c:\\Users\\Daniel\\Documents\\Bird\\build_bird_vc12"'
p15
sS'aarch64-arch-mod'
p16
g4
sS'no-emit'
p17
NsS'androidnativedebug'
p18
NsS'arm-float-abi'
p19
g4
sS'arm_rel_rtsm_args'
p20
S'-via:"c:\\Users\\Daniel\\Documents\\Bird\\build_bird_vc12\\Bird_vc12_arm_release.via" -qemu'
p21
sS'amd64'
p22
NsS'line-width'
p23
I80
sS'gcc_dbg_args'
p24
S'-via:"c:\\Users\\Daniel\\Documents\\Bird\\build_bird_vc12\\Bird_vc12_gcc_debug.via" -qemu'
p25
sS'sim-release-loader'
p26
NsS'android-x86'
p27
NsS'x86_dbg_exe'
p28
S'e:/7.10/s3e\\win32\\s3e_simulator_debug.exe'
p29
sS'jflags'
p30
NsS'nacl_x86_64_rel_args'
p31
g15
sS'release'
p32
NsS'no-make'
p33
NsS'xcode-x86-build-settings'
p34
g4
sS'optimise-size'
p35
NsS'fat'
p36
NsS'output-name-debug'
p37
g4
sS'arm-fpu'
p38
g4
sS'proj_name'
p39
S'Bird_vc12'
p40
sS'rvct-version'
p41
S'none'
p42
sS'compiler'
p43
g4
sS'execute'
p44
NsS'compile-static'
p45
NsS'nacl_x86_64_rel_exe'
p46
g9
sS'msvc-project'
p47
I01
sS'buildenv'
p48
S'VC12'
p49
sS'quick'
p50
NsS'module_path'
p51
NsS'mkf_default'
p52
S's3e-default.mkf'
p53
sS'use-release-std-libs'
p54
NsS'using_perforce'
p55
I00
sS'tizen-x86'
p56
NsS'mips-s3e'
p57
NsS's3e-api-lib-name'
p58
S's3e_api_iwgl'
p59
sS'ios-no-pic'
p60
NsS'shared-arm-lib'
p61
NsS'arm-cpu'
p62
g4
sS'compile-thumb'
p63
NsS'no-ide'
p64
NsS'msvc-version'
p65
S'6.0'
p66
sS'arm'
p67
NsS'nacl_x86_64_dbg_exe'
p68
g9
sS'builddir'
p69
g4
sS'compile-debug-as-release'
p70
I0
sS'arm-arch'
p71
g4
sS'brief'
p72
NsS'dll'
p73
NsS'buildenv-toolset'
p74
g4
sS'version'
p75
NsS'aarch64-arch'
p76
g4
sS'ccache'
p77
I0
sS'offline'
p78
NsS'ios-version'
p79
g4
sS'hub_data'
p80
g4
sS'fake_vc_call'
p81
I01
sS'jobs'
p82
I0
sS'linkflags'
p83
NsS'gcc_aarch64_dbg_args'
p84
g15
sS'nacl_x86_64_dbg_args'
p85
g15
sS'debug'
p86
NsS'xcode-build-order'
p87
g4
sS'gcc_aarch64_rel_rtsm_args'
p88
S'-via:"c:\\Users\\Daniel\\Documents\\Bird\\build_bird_vc12\\Bird_vc12_gcc_aarch64_release.via" -qemu'
p89
sS'gcc_rel_rtsm_args'
p90
S'-via:"c:\\Users\\Daniel\\Documents\\Bird\\build_bird_vc12\\Bird_vc12_gcc_release.via" -qemu'
p91
sS'done_defaults'
p92
I1
sS'path'
p93
(lp94
S'e:/7.10/tools/gcc/x86_64/nacl_windows/toolchain/win_x86_glibc/bin'
p95
asS's3e-data-dir'
p96
S'c:/Users/Daniel/Documents/Bird\\data'
p97
sS'enable-exceptions'
p98
NsS'osx-dll'
p99
NsS'extension'
p100
g4
sS'no-vc6'
p101
NsS'aarch64'
p102
NsS'win32-console'
p103
NsS'dist-format'
p104
g4
sS's3e-force-arch'
p105
NsS'dump_defines'
p106
NsS'use-shared-std-libs'
p107
NsS'gcc-version'
p108
g4
sS'x86_dbg_args'
p109
S'-via:"c:\\Users\\Daniel\\Documents\\Bird\\build_bird_vc12\\Bird_vc12_debug.via"'
p110
sS'nacl'
p111
NsS'tizen_x86_dbg_args'
p112
g15
sS'arm-debugger'
p113
g4
sS'use_temp_extension'
p114
NsS'verbose'
p115
I0
sS'log'
p116
NsS'no-strip'
p117
NsS'rebuild'
p118
NsS'mips_dbg_args'
p119
g15
sS'win32-simulator-dll'
p120
NsS'strict'
p121
NsS'xcode-aarch64-build-settings'
p122
g4
sS'enable-global-path'
p123
NsS'gcc_aarch64_rel_args'
p124
g15
sS'cflags'
p125
NsS'dist-dir'
p126
g4
sS'xcode-arm-build-settings'
p127
g4
sS'disable-runtime-checks'
p128
NsS'csprojSDKRefs'
p129
g4
sS'tizen_x86_rel_exe'
p130
g9
sS'builddirroot'
p131
g4
sS'distcc'
p132
NsS'external-compiler'
p133
NsS'stripflags'
p134
NsS'retry-build'
p135
S'0'
p136
sS'preinclude'
p137
NsS'using_sdk'
p138
I01
sS'nologo'
p139
NsS'warn-level'
p140
I2
sS'mips_dbg_exe'
p141
g9
sS'mkb_in'
p142
S'c:/Users/Daniel/Documents/Bird/Bird.mkb'
p143
sS'no-objc-arc'
p144
NsS'app-icf'
p145
NsS'arm_dbg_exe'
p146
S'e:/7.10/s3e\\bin\\armdebug.exe'
p147
sS'mdev-first'
p148
NsS'csprojDLLRef'
p149
NsS'tizen_x86_rel_args'
p150
g15
sS'android_x86_dbg_exe'
p151
g9
sS'naclx86_64'
p152
NsS'test-config'
p153
g4
sS'list-targets'
p154
NsS'arm_rel_exe'
p155
g9
sS'arm_rel_args'
p156
g15
sS'makedeps'
p157
NsS'android_x86_rel_exe'
p158
g9
sS'default-buildenv'
p159
S'vc12'
p160
sS'x86_rel_exe'
p161
S'e:/7.10/s3e\\win32\\s3e_simulator_release.exe'
p162
sS'preprocess-java'
p163
NsS'mips_rel_args'
p164
g15
sS'test-assets'
p165
g4
sS'lib'
p166
NsS'non-interactive'
p167
NsS'global_argv'
p168
(lp169
S'E:\\7.10\\s3e\\makefile_builder\\mkb.py'
p170
aS'c:/Users/Daniel/Documents/Bird/Bird.mkb'
p171
aS'--buildenv=VC12'
p172
aS'--fake-vc-call'
p173
aS'--default-buildenv=vc12'
p174
aS'--msvc-project'
p175
asS'make'
p176
NsS'optimise-speed'
p177
NsS'internal'
p178
NsS'enable-stdinc'
p179
NsS'defines'
p180
NsS'deploy-only'
p181
NsS'x86'
p182
NsS'deploy'
p183
g4
sS'objc-arc'
p184
NsS'x86_run_exe'
p185
S'e:/7.10/s3e\\win32\\s3e_simulator_debug.exe'
p186
sS'cxxflags'
p187
NsS'x86_rel_args'
p188
S'-via:"c:\\Users\\Daniel\\Documents\\Bird\\build_bird_vc12\\Bird_vc12_release.via"'
p189
sS'gcc_rel_args'
p190
g15
sS'mips'
p191
NsS'xcode-build-settings'
p192
g4
sS'csprojPostBuildActions'
p193
NsS'incredibuild'
p194
NsS'strict-compile'
p195
NsS'use-auto-subdirs'
p196
NsS'mips_rel_exe'
p197
g9
sS'android_x86_rel_args'
p198
g15
sS'no-distcc'
p199
NsS'deployargs'
p200
NsS'iosnativedebug'
p201
NsS'use_prebuilt'
p202
NsS'win-target-platform'
p203
g4
sS'mkf_in'
p204
(lp205
S'e:\\7.10\\s3e\\s3e-default.mkf'
p206
aS'e:\\7.10\\extensions\\s3eamazonads\\s3eamazonads.mkf'
p207
aS'e:\\7.10\\modules\\iwutil\\iwutil.mkf'
p208
aS'e:\\7.10\\modules\\third_party\\libjpeg\\libjpeg.mkf'
p209
aS'e:\\7.10\\modules\\third_party\\libpng\\libpng.mkf'
p210
aS'e:\\7.10\\modules\\third_party\\zlib\\zlib.mkf'
p211
aS'e:\\7.10\\platform_libs\\android\\amazon-ads-android-sdk\\amazon-ads-android-sdk.mkf'
p212
aS'e:\\7.10\\platform_libs\\iphone\\amazon-ads-ios-sdk\\amazon-ads-ios-sdk.mkf'
p213
aS'e:\\7.10\\modules\\iw2dscenegraphcore\\iw2dscenegraphcore.mkf'
p214
aS'e:\\7.10\\modules\\iw2dscenegraph\\iw2dscenegraph.mkf'
p215
aS'e:\\7.10\\modules\\iw2d\\iw2d.mkf'
p216
aS'e:\\7.10\\modules\\iwgx\\iwgx.mkf'
p217
aS'e:\\7.10\\modules\\iwgl\\iwgl.mkf'
p218
aS'e:\\7.10\\modules\\iwgeom\\iwgeom.mkf'
p219
aS'e:\\7.10\\modules\\iwresmanager\\iwresmanager.mkf'
p220
aS'e:\\7.10\\extensions\\pvrtextool\\pvrtextool.mkf'
p221
aS'e:\\7.10\\modules\\iwgxfont\\iwgxfont.mkf'
p222
aS'e:\\7.10\\modules\\third_party\\tiniconv\\tiniconv.mkf'
p223
aS'e:\\7.10\\modules\\iwtween\\iwtween.mkf'
p224
asS'strict-mkb'
p225
NsS'executeargs'
p226
NsS'clean'
p227
NsS'no-asm'
p228
NsS'output-name'
p229
g4
sS'no-modules'
p230
NsS'find_define'
p231
g4
s(dp232
S'e:\\7.10\\s3e\\makefile_builder\\templates\\win32_vcproj.pyc'
p233
F1443317676.0
sS'e:\\7.10\\s3e\\makefile_builder\\templates\\ws8_sln.pyc'
p234
F1443317680.0
sS'e:\\7.10\\s3e\\makefile_builder\\plugins\\s3e_make.pyc'
p235
F1443317570.0
sS'e:\\7.10\\s3e\\makefile_builder\\plugins\\XcodeEmitter.pyc'
p236
F1443918285.5790765
sS'e:\\7.10\\s3e\\makefile_builder\\templates\\ws8_csproj.pyc'
p237
F1443317670.0
sS'e:\\7.10\\s3e\\makefile_builder\\nacl.mkf'
p238
F1443314056.0
sS'e:\\7.10\\s3e\\makefile_builder\\templates\\ws81_csproj.pyc'
p239
F1443317608.0
sS'e:\\7.10\\s3e\\makefile_builder\\plugins\\s3e_vc14_androidnative.pyc'
p240
F1443317612.0
sS'e:\\7.10\\s3e\\makefile_builder\\templates\\ws81_csproj_user.pyc'
p241
F1443317686.0
sS'e:\\7.10\\s3e\\makefile_builder\\docs'
p242
F1443917186.7731974
sS'e:\\7.10\\s3e\\makefile_builder\\plugins\\Win8Emitter.pyc'
p243
F1443317652.0
sS'e:\\7.10\\s3e\\makefile_builder\\plugins\\vc6_utils.pyc'
p244
F1443317682.0
sS'e:\\7.10\\s3e\\makefile_builder\\templates\\linker_script'
p245
F1443314056.0
sS'e:\\7.10\\s3e\\makefile_builder\\templates\\template.opt'
p246
F1443314056.0
sS'e:\\7.10\\s3e\\makefile_builder\\templates\\ws8_ext_sln.pyc'
p247
F1443317588.0
sS'e:\\7.10\\s3e\\makefile_builder\\plugins\\Emitter.pyc'
p248
F1443317632.0
sS'e:\\7.10\\s3e\\makefile_builder\\templates\\make.py'
p249
F1443314056.0
sS'e:\\7.10\\s3e\\makefile_builder\\plugins\\s3e_xcode.py'
p250
F1443314056.0
sS'e:\\7.10\\s3e\\makefile_builder\\templates\\Info.plist'
p251
F1443314056.0
sS'e:\\7.10\\s3e\\makefile_builder\\templates\\win8_vcxproj.pyc'
p252
F1443317706.0
sS'e:\\7.10\\s3e\\makefile_builder\\templates\\qmake.py'
p253
F1443314056.0
sS'e:\\7.10\\s3e\\makefile_builder\\templates\\xcode4_arm.xcscheme'
p254
F1443314058.0
sS'e:\\7.10\\s3e\\makefile_builder\\plugins\\win32_vc6.pyc'
p255
F1443317604.0
sS'e:\\7.10\\s3e\\makefile_builder\\plugins\\ws8_ws8.pyc'
p256
F1443317676.0
sS'e:\\7.10\\s3e\\makefile_builder\\templates\\win10_vcxproj.pyc'
p257
F1443317618.0
sS'e:\\7.10\\s3e\\makefile_builder\\templates\\ws81_vcxproj.pyc'
p258
F1443317670.0
sS'e:\\7.10\\s3e\\makefile_builder\\templates\\mips_linker_script'
p259
F1443314056.0
sS'e:\\7.10\\s3e\\makefile_builder\\templates\\wp81_ext_csproj.pyc'
p260
F1443317684.0
sS'e:\\7.10\\s3e\\makefile_builder\\templates\\win8_csproj_user.pyc'
p261
F1443317596.0
sS'e:\\7.10\\s3e\\makefile_builder\\mkb_option.pyc'
p262
F1443317578.0
sS'e:\\7.10\\s3e\\makefile_builder\\plugins\\osx_xcode.pyc'
p263
F1443317590.0
sS'e:\\7.10\\s3e\\makefile_builder\\templates\\ws81_ext_sln.pyc'
p264
F1443317604.0
sS'e:\\7.10\\s3e\\makefile_builder\\templates\\vc14_androidnative_ext_sln.pyc'
p265
F1443317640.0
sS'e:\\7.10\\s3e\\makefile_builder\\templates\\vc6_opt.pyc'
p266
F1443317684.0
sS'e:\\7.10\\s3e\\makefile_builder\\templates\\wp8_csproj.pyc'
p267
F1443317690.0
sS'e:\\7.10\\s3e\\makefile_builder\\plugins\\s3e_vc6.pyc'
p268
F1443317594.0
sS'e:\\7.10\\s3e\\makefile_builder\\docs\\parse_options.pyc'
p269
F1443317690.0
sS'e:\\7.10\\s3e\\makefile_builder\\plugins\\s3e_win8.pyc'
p270
F1443317610.0
sS'e:\\7.10\\s3e\\makefile_builder\\templates\\ws81_sln.pyc'
p271
F1443317680.0
sS'e:\\7.10\\s3e\\makefile_builder\\docs\\deployment_options.txt'
p272
F1443314056.0
sS'e:\\7.10\\s3e\\makefile_builder\\templates\\ws8_vcxproj.pyc'
p273
F1443317696.0
sS'e:\\7.10\\s3e\\makefile_builder\\templates\\vc10_user.pyc'
p274
F1443317674.0
sS'e:\\7.10\\s3e\\makefile_builder\\templates\\template.suo'
p275
F1443314056.0
sS'e:\\7.10\\s3e\\makefile_builder\\templates\\xcode_pbxuser.py'
p276
F1443314058.0
sS'e:\\7.10\\s3e\\makefile_builder\\plugins\\xcode4_schememanagement.py'
p277
F1443314056.0
sS'e:\\7.10\\s3e\\makefile_builder\\mkb_parser.pyc'
p278
F1443317612.0
sS'e:\\7.10\\s3e\\makefile_builder\\plugins\\linux_vc14.pyc'
p279
F1443317654.0
sS'e:\\7.10\\s3e\\makefile_builder\\templates\\xcode.py'
p280
F1443314058.0
sS'e:\\7.10\\s3e\\makefile_builder\\plugins\\xcode4_schememanagement.pyc'
p281
F1443918285.5840797
sS'e:\\7.10\\s3e\\makefile_builder\\plugins\\win10_win10.pyc'
p282
F1443317686.0
sS'e:\\7.10\\s3e\\makefile_builder\\templates\\vc14_androidnative_vcxproj.pyc'
p283
F1443317580.0
sS'e:\\7.10\\s3e\\makefile_builder\\plugins\\win8_utils.pyc'
p284
F1443317686.0
sS'e:\\7.10\\s3e\\makefile_builder\\templates\\ws8_ext_csproj.pyc'
p285
F1443317594.0
sS'e:\\7.10\\s3e\\makefile_builder\\templates\\qmake_user.py'
p286
F1443314056.0
sS'e:\\7.10\\s3e\\makefile_builder\\plugins\\java.pyc'
p287
F1443317626.0
sS'e:\\7.10\\s3e\\makefile_builder\\templates\\wp81_ext_sln.pyc'
p288
F1443317610.0
sS'e:\\7.10\\s3e\\makefile_builder\\templates\\vc14_androidnative_sln.pyc'
p289
F1443317622.0
sS'e:\\7.10\\s3e\\makefile_builder\\plugins\\deploy.pyc'
p290
F1443317634.0
sS'e:\\7.10\\s3e\\makefile_builder\\templates\\vc14_androidproj.pyc'
p291
F1443317640.0
sS'e:\\7.10\\s3e\\makefile_builder\\plugins\\S3EEmitter.pyc'
p292
F1443317686.0
sS'e:\\7.10\\s3e\\makefile_builder\\plugins\\s3e_qmake.pyc'
p293
F1443918285.6641364
sS'e:\\7.10\\s3e\\makefile_builder\\plugins\\s3e_ws8.pyc'
p294
F1443317684.0
sS'e:\\7.10\\s3e\\makefile_builder\\templates\\wp8_sln.pyc'
p295
F1443317596.0
sS'e:\\7.10\\s3e\\makefile_builder\\plugins\\iphone.pyc'
p296
F1443317654.0
sS'e:\\7.10\\s3e\\makefile_builder\\templates\\wp8_ext_csproj.pyc'
p297
F1443317704.0
sS'e:\\7.10\\s3e\\makefile_builder\\templates\\win10_csproj_user.pyc'
p298
F1443317618.0
sS'e:\\7.10\\s3e\\makefile_builder\\templates\\gdb_start.txt'
p299
F1443314056.0
sS'e:\\7.10\\s3e\\makefile_builder\\tool_launcher.exe'
p300
F1443315032.0
sS'e:\\7.10\\s3e\\makefile_builder\\mkb_globals.pyc'
p301
F1443317674.0
sS'e:\\7.10\\s3e\\makefile_builder\\plugins\\vc7_utils.pyc'
p302
F1443317620.0
sS'e:\\7.10\\s3e\\makefile_builder\\templates\\win8_ext_csproj.pyc'
p303
F1443317622.0
sS'e:\\7.10\\s3e\\makefile_builder\\templates\\win8_sln.pyc'
p304
F1443317610.0
sS'e:\\7.10\\s3e\\makefile_builder\\plugins\\s3e_xcode.pyc'
p305
F1443918285.691155
sS'e:\\7.10\\s3e\\makefile_builder\\plugins\\osx_scons.pyc'
p306
F1443317596.0
sS'e:\\7.10\\s3e\\makefile_builder\\plugins\\null.pyc'
p307
F1443317640.0
sS'e:\\7.10\\s3e\\makefile_builder\\mkb_launcher.exe'
p308
F1443315030.0
sS'e:\\7.10\\s3e\\makefile_builder\\templates\\win8_csproj.pyc'
p309
F1443317710.0
sS'e:\\7.10\\s3e\\makefile_builder\\docs\\deprecated.options.txt'
p310
F1443314056.0
sS'e:\\7.10\\s3e\\makefile_builder\\plugins\\s3e_wp8.pyc'
p311
F1443317680.0
sS'e:\\7.10\\s3e\\makefile_builder\\templates\\wp8_csproj_user.pyc'
p312
F1443317658.0
sS'e:\\7.10\\s3e\\makefile_builder\\docs\\deprecated.defines.txt'
p313
F1443314056.0
sS'e:\\7.10\\s3e\\makefile_builder\\templates\\win10_sln.pyc'
p314
F1443317688.0
sS'e:\\7.10\\s3e\\makefile_builder\\plugins\\s3e_web.pyc'
p315
F1443317636.0
sS'e:\\7.10\\s3e\\makefile_builder\\plugins\\SConsEmitter.pyc'
p316
F1443317608.0
sS'e:\\7.10\\s3e\\makefile_builder\\templates\\ws8_csproj_user.pyc'
p317
F1443317586.0
sS'e:\\7.10\\s3e\\makefile_builder\\plugins\\s3e_wp81.pyc'
p318
F1443317678.0
sS'e:\\7.10\\s3e\\makefile_builder\\templates\\wp81_sln.pyc'
p319
F1443317634.0
sS'e:\\7.10\\s3e\\makefile_builder\\mkb_util.pyc'
p320
F1443317616.0
sS'e:\\7.10\\s3e\\makefile_builder\\plugins\\wp8_wp8.pyc'
p321
F1443317650.0
sS'e:\\7.10\\s3e\\makefile_builder\\templates\\wp81_csproj.pyc'
p322
F1443317622.0
sS'e:\\7.10\\s3e\\makefile_builder\\plugins\\wp81_wp81.pyc'
p323
F1443317580.0
sS'e:\\7.10\\s3e\\makefile_builder\\templates\\vc8_user.pyc'
p324
F1443317650.0
sS'e:\\7.10\\s3e\\makefile_builder\\deployment.pyc'
p325
F1443317652.0
sS'e:\\7.10\\s3e\\makefile_builder\\plugins'
p326
F1443918285.691155
sS'e:\\7.10\\s3e\\makefile_builder\\docs\\mkb.defines.txt'
p327
F1443314056.0
sS'e:\\7.10\\s3e\\makefile_builder\\templates\\wp81_csproj_user.pyc'
p328
F1443317632.0
sS'e:\\7.10\\s3e\\makefile_builder\\templates\\win32_vcxproj_filters.pyc'
p329
F1443317594.0
sS'e:\\7.10\\s3e\\makefile_builder\\plugins\\s3e_win10.pyc'
p330
F1443317622.0
sS'e:\\7.10\\s3e\\makefile_builder\\plugins\\s3e_ws81.pyc'
p331
F1443317688.0
sS'e:\\7.10\\s3e\\makefile_builder\\plugins\\VisualStudioEmitter.pyc'
p332
F1443317624.0
sS'e:\\7.10\\s3e\\makefile_builder\\templates\\win10_ext_csproj.pyc'
p333
F1443317582.0
sS'e:\\7.10\\s3e\\makefile_builder\\templates\\MainWindow.xib'
p334
F1443314056.0
sS'e:\\7.10\\s3e\\makefile_builder\\mkb_main.pyc'
p335
F1443317632.0
sS'e:\\7.10\\s3e\\makefile_builder\\templates\\win10_ext_sln.pyc'
p336
F1443317588.0
sS'e:\\7.10\\s3e\\makefile_builder\\templates\\xcode4_DeployTool.xcscheme'
p337
F1443314058.0
sS'e:\\7.10\\s3e\\makefile_builder\\plugins\\XcodeEmitter.py'
p338
F1443314056.0
sS'e:\\7.10\\s3e\\makefile_builder\\templates\\win32_dsp.pyc'
p339
F1443317690.0
sS'e:\\7.10\\s3e\\makefile_builder\\plugins\\ws81_ws81.pyc'
p340
F1443317638.0
sS'e:\\7.10\\s3e\\makefile_builder\\templates\\scons.pyc'
p341
F1443317700.0
sS'e:\\7.10\\s3e\\makefile_builder\\plugins\\s3e_scons.pyc'
p342
F1443317644.0
sS'e:\\7.10\\s3e\\makefile_builder\\templates'
p343
F1443917187.852961
sS'e:\\7.10\\s3e\\makefile_builder\\docs\\options.txt'
p344
F1443314056.0
sS'e:\\7.10\\s3e\\makefile_builder\\templates\\win32_sln.pyc'
p345
F1443317704.0
sS'e:\\7.10\\s3e\\makefile_builder\\plugins\\linux_scons.pyc'
p346
F1443317710.0
sS'e:\\7.10\\s3e\\makefile_builder\\mkb.py'
p347
F1443314056.0
sS'e:\\7.10\\s3e\\makefile_builder\\mkb_upstream.pyc'
p348
F1443317644.0
sS'e:\\7.10\\s3e\\makefile_builder\\plugins\\s3e_qmake.py'
p349
F1443314056.0
sS'e:\\7.10\\s3e\\makefile_builder\\templates\\win32_vcxproj.pyc'
p350
F1443317682.0
sS'e:\\7.10\\s3e\\makefile_builder\\templates\\ws81_ext_csproj.pyc'
p351
F1443317660.0
sS'e:\\7.10\\s3e\\makefile_builder\\templates\\xcode4.xcscheme'
p352
F1443314058.0
sS'e:\\7.10\\s3e\\makefile_builder\\templates\\wp81_vcxproj.pyc'
p353
F1443317612.0
sS'e:\\7.10\\s3e\\makefile_builder\\templates\\wp8_vcxproj.pyc'
p354
F1443317624.0
sS'e:\\7.10\\s3e\\makefile_builder\\plugins\\MakeEmitter.pyc'
p355
F1443317622.0
sS'e:\\7.10\\s3e\\makefile_builder\\templates\\vc7_suo.pyc'
p356
F1443317678.0
sS'e:\\7.10\\s3e\\makefile_builder\\templates\\win10_csproj.pyc'
p357
F1443317704.0
sS'e:\\7.10\\s3e\\makefile_builder\\templates\\win32_dsw.pyc'
p358
F1443317576.0
sS'e:\\7.10\\s3e\\makefile_builder\\templates\\aarch64_linker_script'
p359
F1443314056.0
sS'e:\\7.10\\s3e\\makefile_builder\\templates\\rvct_linker_script'
p360
F1443314056.0
sccopy_reg
_reconstructor
p361
(cmkb_main
MkbFile
p362
c__builtin__
object
p363
Ntp364
Rp365
(dp366
g5
(lp367
sS'target_name'
p368
S'Bird'
p369
sS'current_file'
p370
g143
sS'package_path'
p371
(lp372
sS'post_build'
p373
(lp374
(lp375
S'e:/7.10/s3e/tools'
p376
aS'E:\\7.10\\s3e\\python\\python.exe .\\process_map.py "$(TargetPath)"'
p377
aa(S'e:\\7.10\\s3e\\bin'
p378
S'"s3e_plink" -l "$(TargetPath)" '
p379
g182
tp380
asS'librarys'
p381
(lp382
g361
(cmkb_main
Library
p383
g363
Ntp384
Rp385
(dp386
S'name'
p387
S'vc6_compat.lib'
p388
sS'expand_name'
p389
I00
sS'include_spec_rvct_objs'
p390
(lp391
sS'include_all_objs'
p392
I00
sS'share_arm'
p393
I00
sS'arch'
p394
S'x86'
p395
sS'nodebug'
p396
I00
sg43
Nsbag361
(g383
g363
Ntp397
Rp398
(dp399
g387
S'iwutil'
p400
sg389
I01
sg390
(lp401
sg392
Nsg393
Nsg394
Nsg396
I00
sg43
Nsbag361
(g383
g363
Ntp402
Rp403
(dp404
g387
S'jpeg'
p405
sg389
I01
sg390
g401
sg392
Nsg393
Nsg394
Nsg396
I00
sg43
Nsbag361
(g383
g363
Ntp406
Rp407
(dp408
g387
S'z'
p409
sg389
I01
sg390
g401
sg392
Nsg393
Nsg394
Nsg396
I00
sg43
Nsbag361
(g383
g363
Ntp410
Rp411
(dp412
g387
S'png'
p413
sg389
I01
sg390
g401
sg392
Nsg393
Nsg394
Nsg396
I00
sg43
Nsbag361
(g383
g363
Ntp414
Rp415
(dp416
g387
S'iw2d'
p417
sg389
I01
sg390
g401
sg392
Nsg393
Nsg394
Nsg396
I00
sg43
Nsbag361
(g383
g363
Ntp418
Rp419
(dp420
g387
S'ATI_Compress_MT_VC7.lib'
p421
sg389
I00
sg390
g401
sg392
Nsg393
Nsg394
S'x86'
p422
sg396
I00
sg43
Nsbag361
(g383
g363
Ntp423
Rp424
(dp425
g387
S'iwgx'
p426
sg389
I01
sg390
g401
sg392
Nsg393
Nsg394
Nsg396
I00
sg43
Nsbag361
(g383
g363
Ntp427
Rp428
(dp429
g387
S'iwgl'
p430
sg389
I01
sg390
g401
sg392
Nsg393
Nsg394
Nsg396
I00
sg43
Nsbag361
(g383
g363
Ntp431
Rp432
(dp433
g387
S'iwgeom'
p434
sg389
I01
sg390
g401
sg392
Nsg393
Nsg394
Nsg396
I00
sg43
Nsbag361
(g383
g363
Ntp435
Rp436
(dp437
g387
S'iwresmanager'
p438
sg389
I01
sg390
g401
sg392
Nsg393
Nsg394
Nsg396
I00
sg43
Nsbag361
(g383
g363
Ntp439
Rp440
(dp441
g387
S'iwgxfont'
p442
sg389
I01
sg390
g401
sg392
Nsg393
Nsg394
Nsg396
I00
sg43
Nsbag361
(g383
g363
Ntp443
Rp444
(dp445
g387
S'tiniconv'
p446
sg389
I01
sg390
g401
sg392
Nsg393
Nsg394
Nsg396
I00
sg43
Nsbag361
(g383
g363
Ntp447
Rp448
(dp449
g387
S's3e_cpp'
p450
sg389
I01
sg390
g391
sg392
I00
sg393
I00
sg394
Nsg396
I00
sg43
Nsbag361
(g383
g363
Ntp451
Rp452
(dp453
g387
S's3e_vc12'
p454
sg389
I01
sg390
(lp455
S'iwcrt.o'
p456
asg392
I00
sg393
I00
sg394
S'x86'
p457
sg396
I00
sg43
Nsbag361
(g383
g363
Ntp458
Rp459
(dp460
g387
S's3e'
p461
sg389
I01
sg390
(lp462
g456
asg392
I00
sg393
I00
sg394
S'!x86'
p463
sg396
I00
sg43
Nsbag361
(g383
g363
Ntp464
Rp465
(dp466
g387
g59
sg389
I01
sg390
g391
sg392
I00
sg393
I00
sg394
S'x86'
p467
sg396
I01
sg43
Nsbag361
(g383
g363
Ntp468
Rp469
(dp470
g387
g59
sg389
I01
sg390
g391
sg392
I00
sg393
I00
sg394
S'!x86'
p471
sg396
I01
sg43
Nsbag361
(g383
g363
Ntp472
Rp473
(dp474
g387
S'stdc++'
p475
sg389
I00
sg390
g391
sg392
I00
sg393
I00
sg394
S'mips'
p476
sg396
I00
sg43
Nsbag361
(g383
g363
Ntp477
Rp478
(dp479
g387
S'c'
p480
sg389
I00
sg390
g391
sg392
I00
sg393
I00
sg394
S'mips'
p481
sg396
I00
sg43
Nsbag361
(g383
g363
Ntp482
Rp483
(dp484
g387
S'm'
p485
sg389
I00
sg390
g391
sg392
I00
sg393
I00
sg394
S'mips'
p486
sg396
I00
sg43
Nsbag361
(g383
g363
Ntp487
Rp488
(dp489
g387
S'gcc'
p490
sg389
I00
sg390
g391
sg392
I00
sg393
I00
sg394
S'mips'
p491
sg396
I00
sg43
Nsbag361
(g383
g363
Ntp492
Rp493
(dp494
g387
g490
sg389
I00
sg390
g391
sg392
I00
sg393
I00
sg394
S'naclx86_64'
p495
sg396
I00
sg43
Nsbag361
(g383
g363
Ntp496
Rp497
(dp498
g387
S'gcc_eh'
p499
sg389
I00
sg390
g391
sg392
I00
sg393
I00
sg394
S'naclx86_64'
p500
sg396
I00
sg43
Nsbag361
(g383
g363
Ntp501
Rp502
(dp503
g387
g480
sg389
I00
sg390
g391
sg392
I00
sg393
I00
sg394
S'naclx86_64'
p504
sg396
I00
sg43
Nsbag361
(g383
g363
Ntp505
Rp506
(dp507
g387
g485
sg389
I00
sg390
g391
sg392
I00
sg393
I00
sg394
S'naclx86_64'
p508
sg396
I00
sg43
Nsbag361
(g383
g363
Ntp509
Rp510
(dp511
g387
S'supc++'
p512
sg389
I00
sg390
g391
sg392
I00
sg393
I00
sg394
S'naclx86_64'
p513
sg396
I00
sg43
Nsbag361
(g383
g363
Ntp514
Rp515
(dp516
g387
S'supc++'
p517
sg389
I00
sg390
g391
sg392
I00
sg393
I00
sg394
S'gcc_x86_android'
p518
sg396
I00
sg43
Nsbag361
(g383
g363
Ntp519
Rp520
(dp521
g387
g480
sg389
I00
sg390
g391
sg392
I00
sg393
I00
sg394
S'gcc_x86_android'
p522
sg396
I00
sg43
Nsbag361
(g383
g363
Ntp523
Rp524
(dp525
g387
g485
sg389
I00
sg390
g391
sg392
I00
sg393
I00
sg394
S'gcc_x86_android'
p526
sg396
I00
sg43
Nsbag361
(g383
g363
Ntp527
Rp528
(dp529
g387
g490
sg389
I00
sg390
g391
sg392
I00
sg393
I00
sg394
S'gcc_x86_android'
p530
sg396
I00
sg43
Nsbag361
(g383
g363
Ntp531
Rp532
(dp533
g387
S'dl'
p534
sg389
I00
sg390
g391
sg392
I00
sg393
I00
sg394
S'gcc_x86_android'
p535
sg396
I00
sg43
Nsbag361
(g383
g363
Ntp536
Rp537
(dp538
g387
S'supc++'
p539
sg389
I00
sg390
g391
sg392
I00
sg393
I00
sg394
S'gcc_arm_android'
p540
sg396
I00
sg43
Nsbag361
(g383
g363
Ntp541
Rp542
(dp543
g387
g480
sg389
I00
sg390
g391
sg392
I00
sg393
I00
sg394
S'gcc_arm_android'
p544
sg396
I00
sg43
Nsbag361
(g383
g363
Ntp545
Rp546
(dp547
g387
g485
sg389
I00
sg390
g391
sg392
I00
sg393
I00
sg394
S'gcc_arm_android'
p548
sg396
I00
sg43
Nsbag361
(g383
g363
Ntp549
Rp550
(dp551
g387
g490
sg389
I00
sg390
g391
sg392
I00
sg393
I00
sg394
S'gcc_arm_android'
p552
sg396
I00
sg43
Nsbag361
(g383
g363
Ntp553
Rp554
(dp555
g387
g534
sg389
I00
sg390
g391
sg392
I00
sg393
I00
sg394
S'gcc_arm_android'
p556
sg396
I00
sg43
NsbasS'library_paths'
p557
(lp558
g361
(cmkb_main
LibraryPath
p559
g363
Ntp560
Rp561
(dp562
S'expand_path'
p563
I01
sg387
S'e:/7.10/modules/iwutil'
p564
sbag361
(g559
g363
Ntp565
Rp566
(dp567
g563
I01
sg387
S'e:/7.10/modules/third_party/libjpeg'
p568
sbag361
(g559
g363
Ntp569
Rp570
(dp571
g563
I01
sg387
S'e:/7.10/modules/third_party/zlib'
p572
sbag361
(g559
g363
Ntp573
Rp574
(dp575
g563
I01
sg387
S'e:/7.10/modules/third_party/libpng'
p576
sbag361
(g559
g363
Ntp577
Rp578
(dp579
g563
I01
sg387
S'e:/7.10/modules/iw2d'
p580
sbag361
(g559
g363
Ntp581
Rp582
(dp583
g563
I00
sg387
S'e:/7.10/modules/iwgx/atitools'
p584
sbag361
(g559
g363
Ntp585
Rp586
(dp587
g563
I01
sg387
S'e:/7.10/modules/iwgx'
p588
sbag361
(g559
g363
Ntp589
Rp590
(dp591
g563
I01
sg387
S'e:/7.10/modules/iwgl'
p592
sbag361
(g559
g363
Ntp593
Rp594
(dp595
g563
I01
sg387
S'e:/7.10/modules/iwgeom'
p596
sbag361
(g559
g363
Ntp597
Rp598
(dp599
g563
I01
sg387
S'e:/7.10/modules/iwresmanager'
p600
sbag361
(g559
g363
Ntp601
Rp602
(dp603
g563
I01
sg387
S'e:/7.10/modules/iwgxfont'
p604
sbag361
(g559
g363
Ntp605
Rp606
(dp607
g563
I01
sg387
S'e:/7.10/modules/third_party/tiniconv'
p608
sbag361
(g559
g363
Ntp609
Rp610
(dp611
g563
I01
sg387
S'e:/7.10/s3e'
p612
sbasS'macros'
p613
(dp614
S'IW_TRACE_CHANNEL_AMAZONADS'
p615
S'1'
p616
sS'IW_USE_CALLSTACK'
p617
NsS'IW_PLATFORM_S3E'
p618
NsS'I3D_PLATFORM_S3E'
p619
NsS'IW_MKF_IW2DSCENEGRAPHCORE'
p620
NsS'IW_TRACE_CHANNEL_AMAZONADS_VERBOSE'
p621
S'2'
p622
sS'IW_MKF_LIBJPEG'
p623
NsS'I3D_OS_S3E'
p624
NsS'IW_MKF_PVRTEXTOOL'
p625
NsS'IW_MKF_AMAZON_ADS_IOS_SDK'
p626
NsS'IW_MKF_TINICONV'
p627
NsS'IW_APP_VERSION'
p628
S'"1.0"'
p629
sS'__S3E__'
p630
NsS'IW_MKF_IWRESMANAGER'
p631
NsS'IW_MKF_FREELICENSE'
p632
NsS'IW_MKF_S3EAMAZONADS'
p633
NsS'IW_MKF_IWUTIL'
p634
NsS'IW_SDK'
p635
NsS'IW_MKF_AMAZON_ADS_ANDROID_SDK'
p636
NsS'IW_ASSERTION_CHANNEL_2D'
p637
g616
sS'IW_APP_NAME'
p638
S'"Bird"'
p639
sS'IW_MKF_S3E_DEFAULT'
p640
NsS'IW_MKF_IWGXFONT'
p641
NsS'IW_MKF_IWTWEEN'
p642
NsS'IW_MKF_ZLIB'
p643
NsS'IW_MKF_IWGX'
p644
NsS'IW_MKF_IW2DSCENEGRAPH'
p645
NsS'IW_ASSERTION_CHANNEL_AMAZONADS'
p646
g616
sS'IW_USE_ASSERTIONS'
p647
NsS'_CRT_SECURE_NO_DEPRECATE'
p648
NsS'IW_MKF_IWGL'
p649
NsS'IW_MKF_LIBPNG'
p650
NsS'IW_TRACE_CHANNEL_IW_2DSCENEGRAPH'
p651
g616
sS'IW_DEBUG'
p652
NsS'IW_USE_TRACING'
p653
NsS'IW_ASSERTION_CHANNEL_IW_2DSCENEGRAPH'
p654
g616
sS'IW_TRACE_CHANNEL_PVRTEXTOOL'
p655
g616
sS'S3E_INCLUDE_LEGACY'
p656
NsS'IW_TRACE_CHANNEL_PVRTEXTOOL_VERBOSE'
p657
g622
sS'IW_MKF_IW2D'
p658
NsS'IW_MKF_IWGEOM'
p659
NsS'IW_ASSERTION_CHANNEL_PVRTEXTOOL'
p660
g616
ssS'done_warnings'
p661
(dp662
sS'subprojects'
p663
(dp664
g211
S'zlib'
p665
sg210
S'libpng'
p666
sg206
S's3e-default.mkf'
p667
sg224
S'iwtween'
p668
sg222
S'iwgxfont'
p669
sg220
S'iwresmanager'
p670
sg214
S'iw2dscenegraphcore'
p671
sg216
S'iw2d'
p672
sg217
S'iwgx'
p673
sg208
S'iwutil'
p674
sg223
S'tiniconv'
p675
sg215
S'iw2dscenegraph'
p676
sg209
S'libjpeg'
p677
sg213
S'amazon-ads-ios-sdk'
p678
sg219
S'iwgeom'
p679
sg218
S'iwgl'
p680
sg221
S'PVRTexTool'
p681
sg207
S's3eAmazonAds'
p682
sg212
S'amazon-ads-android-sdk'
p683
ssS'deployments'
p684
(dp685
S'Default'
p686
g361
(cdeployment
Deployment
p687
g363
Ntp688
Rp689
(dp690
S'got_version'
p691
I0
sS'assets'
p692
g686
sS'mkb'
p693
g365
sS'target'
p694
Nsg394
(lp695
sS'options'
p696
(dp697
S'iphone-link-lib'
p698
(lp699
S's3eAmazonAds'
p700
asS'game-icf'
p701
NsS'android-tm'
p702
NsS'winmobile-icon32'
p703
NsS'ws8-logo-image150x150'
p704
NsS'wp81-logo-image150x150'
p705
NsS'win10-product-name'
p706
NsS'android-keystore'
p707
NsS'osx-ext-dll'
p708
(lp709
S'e:/7.10/extensions/pvrtextool/lib/osx/libPVRTexTool.dylib'
p710
asS'iphone-provisioning-profile'
p711
NsS'win10-identity-name'
p712
NsS'ws8-splash-screen-image620x300'
p713
NsS'wp81-extra-pri'
p714
(lp715
sS'ws8-ext-capabilities'
p716
(lp717
sS'android-icon-hdpi'
p718
NsS'iphone-ipad-only'
p719
NsS'iphone-splash-full-orient'
p720
NsS'wp8-tile-fliptemplate-supports-large'
p721
NsS'iphone-show-status-bar'
p722
NsS'roku-requires-mkv'
p723
NsS'long-caption'
p724
NsS'android-pkgname'
p725
NsS'ws8-ext-native-only-dll'
p726
(lp727
sS'wp81-publisher-display-name'
p728
NsS'win10-logo-image150x150'
p729
NsS'blackberry-permissions-read-device-identifying-information'
p730
NsS'ws81-certificate-end-date'
p731
NsS'psp-dlgcontentid'
p732
NsS'android-version-code'
p733
NsS'win10-ext-uap-capabilities'
p734
(lp735
sS'iphone-minimum-ios-version'
p736
NsS'target-folder'
p737
NsS'tizen-dist1-CA-path'
p738
NsS'symbian-icon2-format'
p739
NsS'tizen-author-key'
p740
NsS'firefoxos-icon-128X128'
p741
NsS'iphone-region'
p742
NsS'uiq3-icon3-mask'
p743
NsS'brew-encoding'
p744
NsS'version'
p745
NsS'nds-initialcode'
p746
NsS'win10-ext-native-dll'
p747
(lp748
sS'iphone-persistent-wifi'
p749
NsS'psp-snd0'
p750
NsS'roku-icon-focus-hd'
p751
NsS'osx-appid'
p752
NsS'ws81-ext-native-only-dll'
p753
(lp754
sS'winmobile-install-folder'
p755
NsS'android-external-res'
p756
(lp757
sS'ws8-product-version'
p758
NsS'brew-priviledges'
p759
NsS'iphone-icon-ipad-search'
p760
NsS'iphone-icon-ipad'
p761
NsS'iphone-skip-icon-generation'
p762
NsS'nacl-icon-128X128'
p763
NsS'roku-hidden'
p764
NsS'psp-titlename'
p765
NsS'wp81-product-version'
p766
NsS'symbian-icon1-mask'
p767
NsS'psp-parentallevel'
p768
NsS'iphone-launch-storyboard'
p769
NsS'splashscreen-use-all'
p770
NsS'symbian-disable-ecompxl'
p771
NsS'splashscreen-auto-onblack'
p772
NsS'iphone-icon-dir'
p773
NsS'iphone-icon-extra'
p774
NsS'win32-ext-dll'
p775
(lp776
S'e:/7.10/extensions/pvrtextool/lib/win32/PVRTexTool.dll'
p777
asS'iphone-development-key'
p778
NsS'winmobile-icon48'
p779
NsS'android-unsigned'
p780
NsS'osx-appstore-category'
p781
NsS'version-revision'
p782
NsS'roku-icon-focus-sd'
p783
NsS'ws81-product-version'
p784
NsS'winmobile-png90'
p785
NsS'iphone-icon-ipad-high-res'
p786
NsS'iphone-disable-ipad'
p787
NsS'win10-ext-sdk-ref'
p788
(lp789
sS'ws81-splash-screen-background'
p790
NsS'wp8-ext-capabilities'
p791
(lp792
sS'brew-icon-large'
p793
NsS'symbian-icon1-mask-black'
p794
NsS'ws8-extra-res'
p795
(lp796
sS'iphone-bundle-localisations'
p797
NsS'winmobile-png60'
p798
NsS'blackberry-permissions-access-shared'
p799
NsS'blackberry-author'
p800
NsS'android-icon-xxxhdpi'
p801
NsS'olddeploytoolstyle'
p802
NsS'android_icon_gallery'
p803
NsS'win10-distribution-pfx-password'
p804
NsS'wp81-splash-screen-background'
p805
NsS'wp8-exclude-720p'
p806
NsS'iphone-info-plist'
p807
NsS'ws81-ext-managed-dll'
p808
(lp809
sS'playbook-cskpass'
p810
NsS'win10-description'
p811
NsS'ws8-distribution-pfx-password'
p812
NsS'symbian-key'
p813
NsS'app-icf'
p814
NsS'blackberry-storepass'
p815
NsS'wp8-tile-fliptemplate-back-title'
p816
NsS'brew-compress-loader'
p817
NsS'iphone-testflight'
p818
NsS'win32-pref-windowposy'
p819
NsS'win32-pref-windowposx'
p820
NsS'roku-requires-audiometadata'
p821
NsS'wp8-exclude-low-mem'
p822
NsS'android-min-sdk-version'
p823
NsS'wp8-tile-fliptemplate-title'
p824
NsS'iphone-icon-ipad-search-high-res'
p825
NsS'iphone-link-libdir'
p826
(lp827
S'e:/7.10/extensions/s3eamazonads/lib/iphone'
p828
asS'wp81-ext-capabilities'
p829
(lp830
sS'blackberry-permissions-read-geolocation'
p831
NsS'win10-splash-screen-image620x300'
p832
NsS'ws81-ext-device-capabilities'
p833
(lp834
sS'tizen-signed'
p835
NsS'android-extra-application-manifest'
p836
(lp837
S'e:/7.10/extensions/s3eamazonads/source/android/ExtraAppManifests.xml'
p838
asS'android-x86'
p839
NsS'win10-extra-res'
p840
(lp841
sS'ws8-ext-native-dll'
p842
(lp843
sS'symbian-icon2-mask'
p844
NsS'iphone-launch-extra'
p845
NsS'webos-memory'
p846
NsS'android-keypass'
p847
NsS'name'
p848
NsS'uiq3-icon2-format'
p849
NsS'roku-splash-screen-sd'
p850
NsS'auto-derbh'
p851
NsS'roku-icon-side-sd'
p852
NsS'android-external-assets'
p853
(lp854
sS'nds-publicsavedatasize'
p855
NsS'splashscreen'
p856
NsS'wp8-product-id'
p857
NsS'iphone-icon-settings-high-res'
p858
NsS'android-manifest'
p859
NsS'ws81-splash-screen-image620x300'
p860
NsS'wp81-product-name'
p861
NsS's3e-compression'
p862
NsS'tizen-author-password'
p863
NsS'wp8-tile-fliptemplate-back-content'
p864
NsS'blackberry-extra-descriptor'
p865
(lp866
sS'android-java-source-version'
p867
NsS'symbian-icon1'
p868
NsS'symbian-icon2'
p869
NsS'nds-makercode'
p870
NsS'android-extra-styles-file'
p871
NsS'android-ext-target-sdk-version'
p872
(lp873
I17
asS'wp81-publisher-id'
p874
NsS'nds-bannertitle-jp'
p875
NsS'wp81-logo-image44x44'
p876
NsS'osx-sign-for-store'
p877
NsS'symbian7-uid'
p878
NsS'wp8-tile-fliptemplate-large-back-content'
p879
NsS'wp81-phone-publisher-id'
p880
NsS'nds-bannertitle-cn'
p881
NsS'iphone-distribution-key'
p882
NsS'win10-phone-publisher-id'
p883
NsS'android-icon-gallery'
p884
NsS'blackberry-keystore'
p885
NsS'iphone-nosign'
p886
NsS'caption'
p887
NsS'nacl-permissions'
p888
NsS'android-extra-manifest'
p889
(lp890
sS'wp81-ext-sdk-ref'
p891
(lp892
sS'android-icon-xxhdpi'
p893
NsS'version-minor'
p894
NsS'iphone-skip-launch-generation'
p895
NsS'iphone-link-libdirs'
p896
(lp897
sS'iphone-icon-large'
p898
NsS'symbian-keypwd'
p899
NsS'symbian8-uid'
p900
NsS'symbian-cert-key'
p901
NsS'winmobile-ampd-part-number'
p902
NsS'arch'
p903
NsS'nds-romheadertemplate'
p904
NsS'webos-icon'
p905
NsS'wp81-ext-device-capabilities'
p906
(lp907
sS'psp-dlgprotectdocument'
p908
NsS'ws8-splash-screen-background'
p909
NsS'android-icon-mdpi'
p910
NsS'android-sdk-build-tools-version'
p911
NsS'nds-icon'
p912
NsS'ws8-custom-manifest-fill'
p913
NsS'iphone-development-cert'
p914
NsS'symbian-icon2-mask-black'
p915
NsS'blackberry-phone-icon'
p916
NsS'iphone-enable-4inch-retina'
p917
NsS'ws8-custom-manifest'
p918
NsS'version-major'
p919
NsS'wp8-genre-isgame'
p920
NsS'uiq3-uid'
p921
NsS'iphone-splash-retina-generate'
p922
NsS'tizen-hw-acceleration'
p923
NsS'iphone_bundle_localisations'
p924
NsS'tizen-dist1-key'
p925
NsS'wp81-custom-manifest-fill'
p926
NsS'wp8-custom-manifest'
p927
NsS'nds-bannertitle-ge'
p928
NsS'iphone-sign-for-distribution'
p929
NsS'wp8-tile-fliptemplate-medium-back-image'
p930
NsS'wp8-publisher-id'
p931
NsS'icon'
p932
NsS'android-target-sdk-version'
p933
NsS'win10-ext-capabilities'
p934
(lp935
sS'wp8-exclude-wxga'
p936
NsS'wp81-identity-name'
p937
NsS'uiq3-icon2-mask'
p938
NsS'iphone-splashscreen-portrait'
p939
NsS'iphone-icon-high-res'
p940
NsS'ws81-distribution-pfx-password'
p941
NsS'playbook-author'
p942
NsS'wp8-custom-manifest-fill'
p943
NsS'linux-ext-lib'
p944
(lp945
sS'blackberry-permissions-access-internet'
p946
NsS'lgtv-use-drm'
p947
NsS'win10-splash-screen-image480x800'
p948
NsS'symbian-platsecflags'
p949
NsS'ws8-description'
p950
NsS'blackberry-playbook-icon'
p951
NsS'win10-distribution-cer'
p952
NsS'copyright'
p953
NsS'winmobile-cab-compress'
p954
NsS'win32-gles-directory'
p955
NsS'wp8-author'
p956
NsS'android-ext-min-sdk-version'
p957
(lp958
I4
asS'iphone-uiviewcontroller-based-status-bar'
p959
NsS'ws81-logo-image150x150'
p960
NsS'osx-signing-identity-app'
p961
NsS'tizen-project-url'
p962
NsS'symbian-icon-svg'
p963
NsS'android-aliasname'
p964
NsS'psp-dlgmanual'
p965
NsS'brew-uid'
p966
NsS'wp81-ext-native-only-dll'
p967
(lp968
sS'symbian-locationsupport'
p969
NsS'wp81-logo-image50x50'
p970
NsS'ws8-ext-managed-dll'
p971
(lp972
sS'nds-bannertitle-it'
p973
NsS'ws81-custom-manifest-fill'
p974
NsS'ws8-ext-sdk-manifest-part'
p975
(lp976
sS'uiq3-icon1-mask'
p977
NsS'winmobile-icon16'
p978
NsS'ws8-product-name'
p979
NsS'blackberry-cskpass'
p980
NsS'winmobile-start-menu-folder'
p981
NsS'brew-clsid'
p982
NsS'roku-requires-bluetooth'
p983
NsS'iphone-default-development-profile'
p984
NsS'ws8-ext-device-capabilities'
p985
(lp986
sS'blackberry-permissions-use-camera'
p987
NsS'ws81-extra-pri'
p988
(lp989
sS'iphone-prerendered-icon'
p990
NsS'iphone-appid'
p991
NsS'ws8-identity-name'
p992
NsS'tizen-dist2-CA-path'
p993
NsS'android-external-jars'
p994
(lp995
S'e:/7.10/platform_libs/android/amazon-ads-android-sdk/third_party/lib/amazon-ads-5.5.149.jar'
p996
aS'e:/7.10/extensions/s3eamazonads/lib/android/s3eAmazonAds.jar'
p997
asS'winmobile-icon64'
p998
NsS'blackberry-permissions-post-notification'
p999
NsS'winmobile-setup-dll'
p1000
NsS'firefoxos-manifest'
p1001
NsS'win8-winrt-extra-res'
p1002
(lp1003
sS'wp81-ext-sdk-manifest-part'
p1004
(lp1005
sS'symbian9-uid'
p1006
NsS'iphone-icon-ipad-ios7'
p1007
NsS'winmobile-trace-file'
p1008
NsS'roku-splash-color'
p1009
NsS'psp-appversion'
p1010
NsS'android-java-target-version'
p1011
NsS'ws8-publisher-id'
p1012
NsS'win10-splash-screen-background'
p1013
NsS'win10-product-id'
p1014
NsS'win10-logo-image30x30'
p1015
NsS'winmobile-png45'
p1016
NsS'wp81-extra-res'
p1017
(lp1018
sS'android-storepass'
p1019
NsS'nacl-icon-16X16'
p1020
NsS'osx-signing-identity-inst'
p1021
NsS'android-custom-activity'
p1022
NsS'psp-discversion'
p1023
NsS'wp81-ext-managed-dll'
p1024
(lp1025
sS'nacl-clear-user-data'
p1026
NsS'psp-copyright'
p1027
NsS'win10-ext-managed-dll'
p1028
(lp1029
sS'win10-logo-image50x50'
p1030
NsS'embed-icf'
p1031
NsS'tizen-manifest'
p1032
NsS'osx-icon'
p1033
NsS'webos-appinfo'
p1034
NsS'psp-dlghealthwarning'
p1035
NsS'webos-appid'
p1036
NsS'roku-icon-side-hd'
p1037
NsS'iphone-icon-ipad-search-high-res-ios7'
p1038
NsS'iphone-extra-plist'
p1039
(lp1040
sS'ws81-ext-sdk-manifest-part'
p1041
(lp1042
sS'loader_name_prefix'
p1043
NsS'iphone-launch-dir'
p1044
NsS'nds-titlename'
p1045
NsS'ws81-logo-image50x50'
p1046
NsS'wp81-custom-manifest'
p1047
NsS'osx-entitlements-plist'
p1048
NsS'win10-product-version'
p1049
NsS'psp-dlgicon0'
p1050
NsS'winmobile-nouninstall'
p1051
NsS'psp-discid'
p1052
NsS'tizen-dist2-password'
p1053
NsS'android-supports-gl-texture'
p1054
(lp1055
sS'ws8-ext-sdk-ref'
p1056
(lp1057
sS'iphone-extra-string'
p1058
(lp1059
sS'version-string'
p1060
NsS'iphone-icon-high-res-ios7'
p1061
NsS'ws8-certificate-end-date'
p1062
NsS'nacl-skip-zip'
p1063
NsS'win10-custom-manifest'
p1064
NsS'tizen-so'
p1065
(lp1066
sS'win10-logo-image44x44'
p1067
NsS'win10-custom-manifest-fill'
p1068
NsS'wp8-tile-fliptemplate-small-image'
p1069
NsS'win10-certificate-end-date'
p1070
NsS'playbook-authorid'
p1071
NsS'win10-publisher-id'
p1072
NsS'iphone-signing-identity'
p1073
NsS'roku-persist-quota'
p1074
NsS'nds-bannertitle-fr'
p1075
NsS'ws8-distribution-pfx'
p1076
NsS'ws8-publisher-display-name'
p1077
NsS'brew-icon-small'
p1078
NsS'psp-dlgpic2'
p1079
NsS'psp-dlgpic0'
p1080
NsS'win10-phone-product-id'
p1081
NsS'psp-pic0'
p1082
NsS'psp-pic1'
p1083
NsS'win32-pref-windowtitle'
p1084
NsS'psp-icon0'
p1085
NsS'psp-icon1'
p1086
NsS'ws81-identity-name'
p1087
NsS'win10-distribution-pfx'
p1088
NsS'winmobile-icon'
p1089
NsS'iphone-no-splash'
p1090
NsS'iphone-splash'
p1091
NsS'iphone-app-fonts'
p1092
NsS'wp8-ext-native-dll'
p1093
(lp1094
sS'wp81-splash-screen-image480x800'
p1095
NsS'ws81-distribution-cer'
p1096
NsS'win10-ext-sdk-manifest-part'
p1097
(lp1098
sS'uiq3-icon2'
p1099
NsS'uiq3-icon3'
p1100
NsS'uiq3-icon1'
p1101
NsS'uiq3-icon1-format'
p1102
NsS'ws8-logo-image50x50'
p1103
NsS'iphone-info-plist-override'
p1104
NsS'symbian-run-on-install'
p1105
NsS'wp81-description'
p1106
NsS'ws81-publisher-display-name'
p1107
NsS'android-version-name'
p1108
NsS'firefoxos-xulrunner'
p1109
NsS'symbian-soundrecordsupport'
p1110
NsS'iphone-backgroundmode-audio'
p1111
NsS'nds-bannertitle-sp'
p1112
NsS'win10-extra-pri'
p1113
(lp1114
sS'psp-producer'
p1115
NsS'iphone-apple-wwdr-cert'
p1116
NsS'android-icon-nonstandard'
p1117
NsS'win32-pref-processtitle'
p1118
NsS'android-icon-xhdpi'
p1119
NsS'nds-bannertitle-hn'
p1120
NsS'tizen-dist2-key'
p1121
NsS'brew-depends'
p1122
NsS'ws81-custom-manifest'
p1123
NsS'iphone-allow-launch-rotation'
p1124
NsS'brew-mif'
p1125
NsS'iphone-icon-ipad-search-ios7'
p1126
NsS'brew-icon-medium'
p1127
NsS'iphone-bundle-url-name'
p1128
NsS'wp8-tile-fliptemplate-large-front-image'
p1129
NsS'tizen-dist2-CA-root-path'
p1130
NsS'ws81-description'
p1131
NsS'uiq3-icon3-format'
p1132
NsS'win10-publisher-display-name'
p1133
NsS'ws81-logo-image30x30'
p1134
NsS'win10-ext-device-capabilities'
p1135
(lp1136
sS'win8-phone-extra-res'
p1137
(lp1138
sS'iphone-signing-host'
p1139
NsS'tizen-icon'
p1140
NsS'osx-info-plist'
p1141
NsS'symbian-icon1-format'
p1142
NsS'ws81-distribution-pfx'
p1143
NsS'win32-aux-dll'
p1144
(lp1145
sS'blackberry-authorid'
p1146
NsS'ws81-publisher-id'
p1147
NsS'win8-store-extra-res'
p1148
(lp1149
sS'wp8-description'
p1150
NsS'iphone-link-opts'
p1151
(lp1152
S'-Fe:/7.10/platform_libs/iphone/amazon-ads-ios-sdk/third_party/Ads -framework AmazonAd'
p1153
aS'-weak_framework AdSupport -weak_framework CoreLocation -weak_framework SystemConfiguration'
p1154
aS'-weak_framework CoreTelephony -weak_framework MediaPlayer'
p1155
aS'-weak_framework EventKit -weak_framework EventKitUI'
p1156
asS'ws81-ext-sdk-ref'
p1157
(lp1158
sS'roku-splash-min-time'
p1159
NsS'wp8-tile-fliptemplate-medium-front-image'
p1160
NsS'iphone-disable-launch-images'
p1161
NsS'android-sdk-platform-version'
p1162
NsS'provider'
p1163
NsS'playbook-keystore'
p1164
NsS'tizen-appid'
p1165
NsS'wp8-extra-res'
p1166
(lp1167
sS'symbian-osexecsupport'
p1168
NsS'android-install-location'
p1169
NsS'nds-privatesavedatasize'
p1170
NsS'iphone-disable-testflight'
p1171
NsS'playbook-storepass'
p1172
NsS'android-icon-ldpi'
p1173
NsS'manufacturer'
p1174
NsS'itunes-artwork'
p1175
NsS'iphone-extra-sections'
p1176
NsS'ws81-product-name'
p1177
NsS'ws81-ext-native-dll'
p1178
(lp1179
sS'ws8-extra-pri'
p1180
(lp1181
sS'win32-icon'
p1182
NsS'ws8-logo-image30x30'
p1183
NsS'wp8-ext-managed-dll'
p1184
(lp1185
sS'iphone-splashscreen-landscape'
p1186
NsS'symbian-maxheapsize'
p1187
NsS'android-extra-packages'
p1188
(lp1189
sS'priv-sign-key'
p1190
NsS'networking'
p1191
NsS'android-icon'
p1192
NsS'iphone-icon-settings'
p1193
NsS'nacl-manifest'
p1194
NsS'wp81-phone-product-id'
p1195
NsS'firefoxos-icon-60X60'
p1196
NsS'iphone-distribution-cert'
p1197
NsS'android_extra_strings'
p1198
NsS'nds-bannertitle-en'
p1199
NsS'blackberry-permissions-record-audio'
p1200
NsS'android-so'
p1201
(lp1202
S'e:/7.10/extensions/s3eamazonads/lib/android/libs3eAmazonAds.so'
p1203
asS'wp8-higher-mem'
p1204
NsS'wp8-ext-sdk-ref'
p1205
(lp1206
sS'wp8-fast-resume-mode'
p1207
NsS'roku-splash-screen-hd'
p1208
NsS'iphone-bundle-url-schemes'
p1209
NsS'roku-screensaver-private'
p1210
NsS'osx-extra-res'
p1211
(lp1212
sS'ws81-extra-res'
p1213
(lp1214
sS'playbook-icon'
p1215
NsS'uid'
p1216
NsS'pkguid-as-uid'
p1217
NsS'wp81-ext-native-dll'
p1218
(lp1219
sS'tizen-dist1-password'
p1220
NsS'roku-screensaver-title'
p1221
NsS'osx-minimum-osx-version'
p1222
NsS'symbian-cert'
p1223
NsS'iphone-icon'
p1224
NsS'ws81-ext-capabilities'
p1225
(lp1226
sS'ws8-distribution-cer'
p1227
NsS'playbook-access-shared'
p1228
NsS'iphone-icon-ipad-high-res-ios7'
p1229
NsS'iphone-link-libs'
p1230
(lp1231
sS'wp8-exclude-wvga'
p1232
NsS'assets'
p1233
NsS'wp8-tile-fliptemplate-large-back-image'
p1234
NsS'pub-sign-key'
p1235
NsS'nacl-legacy-ext'
p1236
NsS'android-extra-strings'
p1237
(lp1238
sS'tizen-author-CA-path'
p1239
Nssg387
g686
sbssS'platform'
p1240
S'S3E'
p1241
sg75
S'1.0'
p1242
sS'arcade_platform'
p1243
g4
sS'extensions'
p1244
(dp1245
sS'source_groups_tree'
p1246
(dp1247
S'(iwtween)'
p1248
(dp1249
S'e:/7.10/modules/iwtween/source/IwTween.cpp'
p1250
(lp1251
I1
a(dp1252
asS'e:/7.10/modules/iwtween/h/IwTween.h'
p1253
(lp1254
I1
ag1252
asS'e:/7.10/modules/iwtween/iwtween.mkf'
p1255
(lp1256
I1
a(dp1257
assS'(libpng)'
p1258
(dp1259
S'h'
p1260
(dp1261
S'e:/7.10/modules/third_party/libpng/h/pngconf.h'
p1262
(lp1263
I1
a(dp1264
asS'e:/7.10/modules/third_party/libpng/h/png.h'
p1265
(lp1266
I1
ag1264
assS'e:/7.10/modules/third_party/libpng/libpng.mkf'
p1267
(lp1268
I1
a(dp1269
assS'(amazon-ads-android-sdk)'
p1270
(dp1271
S'e:/7.10/platform_libs/android/amazon-ads-android-sdk/amazon-ads-android-sdk.mkf'
p1272
(lp1273
I1
a(dp1274
assS'(tiniconv)'
p1275
(dp1276
S'e:/7.10/modules/third_party/tiniconv/source/tiniconv.h'
p1277
(lp1278
I1
a(dp1279
asS'e:/7.10/modules/third_party/tiniconv/source/tiniconv_int.h'
p1280
(lp1281
I1
ag1279
asS'e:/7.10/modules/third_party/tiniconv/tiniconv.mkf'
p1282
(lp1283
I1
a(dp1284
assS'(amazon-ads-ios-sdk)'
p1285
(dp1286
S'e:/7.10/platform_libs/iphone/amazon-ads-ios-sdk/amazon-ads-ios-sdk.mkf'
p1287
(lp1288
I1
a(dp1289
assS'Extensions'
p1290
(dp1291
S's3eAmazonAds'
p1292
(dp1293
S'interface'
p1294
(dp1295
S'e:/7.10/extensions/s3eamazonads/interface/s3eAmazonAds_interface.cpp'
p1296
(lp1297
I1
a(dp1298
asS'e:/7.10/extensions/s3eamazonads/interface/s3eAmazonAds.defines.txt'
p1299
(lp1300
I1
ag1298
assS'e:/7.10/extensions/s3eamazonads/h/s3eAmazonAds.h'
p1301
(lp1302
I1
ag1298
asS'e:/7.10/extensions/s3eamazonads/s3eamazonads.mkf'
p1303
(lp1304
I1
a(dp1305
assS'PVRTexTool'
p1306
(dp1307
S'e:/7.10/extensions/pvrtextool/h/PVRTexTool.h'
p1308
(lp1309
I1
a(dp1310
asS'interface'
p1311
(dp1312
S'e:/7.10/extensions/pvrtextool/interface/PVRTexTool.defines.txt'
p1313
(lp1314
I1
ag1310
asS'e:/7.10/extensions/pvrtextool/interface/PVRTexTool_interface.cpp'
p1315
(lp1316
I1
ag1310
assS'e:/7.10/extensions/pvrtextool/pvrtextool.mkf'
p1317
(lp1318
I1
a(dp1319
asssS'c:/Users/Daniel/Documents/Bird/input.h'
p1320
(lp1321
I1
a(dp1322
asS'(s3e-default)'
p1323
(dp1324
S'e:/7.10/s3e/s3e-default.mkf'
p1325
(lp1326
I1
a(dp1327
assS"'Marmalade Studio'"
p1328
(dp1329
S'iw2dscenegraph'
p1330
(dp1331
S'e:/7.10/modules/iw2dscenegraph/h/Iw2DSceneGraph.h'
p1332
(lp1333
I1
a(dp1334
asS'e:/7.10/modules/iw2dscenegraph/iw2dscenegraph.mkf'
p1335
(lp1336
I1
a(dp1337
asS'e:/7.10/modules/iw2dscenegraph/docs/iw2dscenegraph.defines.txt'
p1338
(lp1339
I1
ag1334
asS'e:/7.10/modules/iw2dscenegraph/source/Iw2DSceneGraph.cpp'
p1340
(lp1341
I1
ag1334
assS'iwgl'
p1342
(dp1343
S'e:/7.10/modules/iwgl/h/IwGLExt.h'
p1344
(lp1345
I1
a(dp1346
asS'e:/7.10/modules/iwgl/h/IwGL.h'
p1347
(lp1348
I1
ag1346
asS'e:/7.10/modules/iwgl/iwgl.mkf'
p1349
(lp1350
I1
a(dp1351
asS'e:/7.10/modules/iwgl/docs/iwgl.config.txt'
p1352
(lp1353
I1
ag1346
assS'iw2d'
p1354
(dp1355
S'e:/7.10/modules/iw2d/h/Iw2D.h'
p1356
(lp1357
I1
a(dp1358
asS'e:/7.10/modules/iw2d/iw2d.mkf'
p1359
(lp1360
I1
a(dp1361
asS'e:/7.10/modules/iw2d/docs/iw2d_public.defines.txt'
p1362
(lp1363
I1
ag1358
asS'e:/7.10/modules/iw2d/docs/iw2d.config.txt'
p1364
(lp1365
I1
ag1358
assS'iwgxfont'
p1366
(dp1367
S'e:/7.10/modules/iwgxfont/h/IwGxFontGlyph.h'
p1368
(lp1369
I1
a(dp1370
asS'e:/7.10/modules/iwgxfont/h/IwGxFontContainer.h'
p1371
(lp1372
I1
ag1370
asS'e:/7.10/modules/iwgxfont/docs/iwgxfont_public.defines.txt'
p1373
(lp1374
I1
ag1370
asS'e:/7.10/modules/iwgxfont/h/IwGxFontTypes.h'
p1375
(lp1376
I1
ag1370
asS'e:/7.10/modules/iwgxfont/iwgxfont.mkf'
p1377
(lp1378
I1
a(dp1379
asS'e:/7.10/modules/iwgxfont/h/IwGxFontPreparedData.h'
p1380
(lp1381
I1
ag1370
asS'e:/7.10/modules/iwgxfont/docs/iwgxfont.config.txt'
p1382
(lp1383
I1
ag1370
asS'e:/7.10/modules/iwgxfont/h/IwGxFontState.h'
p1384
(lp1385
I1
ag1370
asS'e:/7.10/modules/iwgxfont/h/IwGxFont.h'
p1386
(lp1387
I1
ag1370
assS'iwgeom'
p1388
(dp1389
S'e:/7.10/modules/iwgeom/h/IwGeomFVec3.h'
p1390
(lp1391
I1
a(dp1392
asS'e:/7.10/modules/iwgeom/h/IwGeomSVec3.h'
p1393
(lp1394
I1
ag1392
asS'e:/7.10/modules/iwgeom/h/IwGeomFVec2.h'
p1395
(lp1396
I1
ag1392
asS'e:/7.10/modules/iwgeom/h/IwGeomFMat2D.h'
p1397
(lp1398
I1
ag1392
asS'e:/7.10/modules/iwgeom/h/IwGeomSphere.h'
p1399
(lp1400
I1
ag1392
asS'e:/7.10/modules/iwgeom/h/IwGeomPlane.h'
p1401
(lp1402
I1
ag1392
asS'e:/7.10/modules/iwgeom/h/IwGeomMat2D.h'
p1403
(lp1404
I1
ag1392
asS'e:/7.10/modules/iwgeom/h/IwGeomQuat.h.tpl'
p1405
(lp1406
I1
ag1392
asS'e:/7.10/modules/iwgeom/h/IwGeomSVec2.h'
p1407
(lp1408
I1
ag1392
asS'e:/7.10/modules/iwgeom/h/IwGeomSQuat.h'
p1409
(lp1410
I1
ag1392
asS'e:/7.10/modules/iwgeom/h/IwGeomSqrt.h'
p1411
(lp1412
I1
ag1392
asS'e:/7.10/modules/iwgeom/h/IwGeomFIntersect.h'
p1413
(lp1414
I1
ag1392
asS'e:/7.10/modules/iwgeom/h/IwGeomMat.h'
p1415
(lp1416
I1
ag1392
asS'e:/7.10/modules/iwgeom/h/IwGeomIntersect.h'
p1417
(lp1418
I1
ag1392
asS'e:/7.10/modules/iwgeom/h/IwGeomFBBox.h'
p1419
(lp1420
I1
ag1392
asS'e:/7.10/modules/iwgeom/h/IwGeomMat.h.tpl'
p1421
(lp1422
I1
ag1392
asS'e:/7.10/modules/iwgeom/h/IwGeomFPlane.h'
p1423
(lp1424
I1
ag1392
asS'e:/7.10/modules/iwgeom/h/IwGeomSVec4.h'
p1425
(lp1426
I1
ag1392
asS'e:/7.10/modules/iwgeom/h/IwGeom.h'
p1427
(lp1428
I1
ag1392
asS'e:/7.10/modules/iwgeom/h/IwGeomMenu.h'
p1429
(lp1430
I1
ag1392
asS'e:/7.10/modules/iwgeom/h/IwGeomVec4.h'
p1431
(lp1432
I1
ag1392
asS'e:/7.10/modules/iwgeom/h/IwGeomLegacy.h'
p1433
(lp1434
I1
ag1392
asS'e:/7.10/modules/iwgeom/h/IwGeomVec3.h'
p1435
(lp1436
I1
ag1392
asS'e:/7.10/modules/iwgeom/h/IwGeomFQuat.h'
p1437
(lp1438
I1
ag1392
asS'e:/7.10/modules/iwgeom/h/IwGeomVec2.h'
p1439
(lp1440
I1
ag1392
asS'e:/7.10/modules/iwgeom/h/IwGeomQuat.h'
p1441
(lp1442
I1
ag1392
asS'e:/7.10/modules/iwgeom/h/IwGeomFMat.h'
p1443
(lp1444
I1
ag1392
asS'e:/7.10/modules/iwgeom/h/IwGeomFVec4.h'
p1445
(lp1446
I1
ag1392
asS'e:/7.10/modules/iwgeom/docs/iwgeom.config.txt'
p1447
(lp1448
I1
ag1392
asS'e:/7.10/modules/iwgeom/h/IwGeomCore.h'
p1449
(lp1450
I1
ag1392
asS'e:/7.10/modules/iwgeom/h/IwGeomFSphere.h'
p1451
(lp1452
I1
ag1392
asS'e:/7.10/modules/iwgeom/h/IwGeomVec.h.tpl'
p1453
(lp1454
I1
ag1392
asS'e:/7.10/modules/iwgeom/h/IwGeomBBox.h'
p1455
(lp1456
I1
ag1392
asS'e:/7.10/modules/iwgeom/h/IwGeomMat2D.h.tpl'
p1457
(lp1458
I1
ag1392
asS'e:/7.10/modules/iwgeom/h/IwGeomVec.h'
p1459
(lp1460
I1
ag1392
asS'e:/7.10/modules/iwgeom/iwgeom.mkf'
p1461
(lp1462
I1
a(dp1463
assS'iwresmanager'
p1464
(dp1465
S'e:/7.10/modules/iwresmanager/h/IwResHandlerImage.h'
p1466
(lp1467
I1
a(dp1468
asS'e:/7.10/modules/iwresmanager/docs/iwresmanager.config.txt'
p1469
(lp1470
I1
ag1468
asS'e:/7.10/modules/iwresmanager/h/IwResHandlerGROUP.h'
p1471
(lp1472
I1
ag1468
asS'e:/7.10/modules/iwresmanager/h/IwResHandlerITX.h'
p1473
(lp1474
I1
ag1468
asS'e:/7.10/modules/iwresmanager/h/IwResGroup.h'
p1475
(lp1476
I1
ag1468
asS'e:/7.10/modules/iwresmanager/h/IwResManager.h'
p1477
(lp1478
I1
ag1468
asS'e:/7.10/modules/iwresmanager/iwresmanager.mkf'
p1479
(lp1480
I1
a(dp1481
asS'e:/7.10/modules/iwresmanager/h/IwResManagerClass.h'
p1482
(lp1483
I1
ag1468
asS'e:/7.10/modules/iwresmanager/h/IwResSerialise.h'
p1484
(lp1485
I1
ag1468
asS'e:/7.10/modules/iwresmanager/h/IwResHandler.h'
p1486
(lp1487
I1
ag1468
assS'iwgx'
p1488
(dp1489
S'e:/7.10/modules/iwgx/h/IwGxPrint.h'
p1490
(lp1491
I1
a(dp1492
asS'e:/7.10/modules/iwgx/h/IwDebugPrim.h'
p1493
(lp1494
I1
ag1492
asS'e:/7.10/modules/iwgx/h/IwGx.h'
p1495
(lp1496
I1
ag1492
asS'e:/7.10/modules/iwgx/h/IwGxError.h'
p1497
(lp1498
I1
ag1492
asS'e:/7.10/modules/iwgx/h/IwGxTypes.h'
p1499
(lp1500
I1
ag1492
asS'e:/7.10/modules/iwgx/h/IwGxShaderTechnique.h'
p1501
(lp1502
I1
ag1492
asS'e:/7.10/modules/iwgx/iwgx.mkf'
p1503
(lp1504
I1
a(dp1505
asS'e:/7.10/modules/iwgx/h/IwGxMetrics.h'
p1506
(lp1507
I1
ag1492
asS'e:/7.10/modules/iwgx/h/IwGxStream.h'
p1508
(lp1509
I1
ag1492
asS'e:/7.10/modules/iwgx/h/IwGxFuncTable.h'
p1510
(lp1511
I1
ag1492
asS'e:/7.10/modules/iwgx/h/IwGxSurface.h'
p1512
(lp1513
I1
ag1492
asS'e:/7.10/modules/iwgx/h/IwGxTransformSW.h'
p1514
(lp1515
I1
ag1492
asS'e:/7.10/modules/iwgx/h/IwGxDebug.h'
p1516
(lp1517
I1
ag1492
asS'e:/7.10/modules/iwgx/h/IwTexture.h'
p1518
(lp1519
I1
ag1492
asS'e:/7.10/modules/iwgx/h/IwMatAnim.h'
p1520
(lp1521
I1
ag1492
asS'e:/7.10/modules/iwgx/h/IwTPage.h'
p1522
(lp1523
I1
ag1492
asS'e:/7.10/modules/iwgx/h/IwColour.h'
p1524
(lp1525
I1
ag1492
asS'e:/7.10/modules/iwgx/docs/iwgx.config.txt'
p1526
(lp1527
I1
ag1492
asS'e:/7.10/modules/iwgx/h/IwClip.inl'
p1528
(lp1529
I1
ag1492
asS'e:/7.10/modules/iwgx/h/IwMaterial.h'
p1530
(lp1531
I1
ag1492
asS'e:/7.10/modules/iwgx/h/IwClip.h'
p1532
(lp1533
I1
ag1492
asS'e:/7.10/modules/iwgx/h/IwFColour.h'
p1534
(lp1535
I1
ag1492
asS'e:/7.10/modules/iwgx/h/IwResHandlerMTL.h'
p1536
(lp1537
I1
ag1492
asS'e:/7.10/modules/iwgx/h/IwGxState.h'
p1538
(lp1539
I1
ag1492
asS'e:/7.10/modules/iwgx/docs/iwgx_public.defines.txt'
p1540
(lp1541
I1
ag1492
assS'iw2dscenegraphcore'
p1542
(dp1543
S'e:/7.10/modules/iw2dscenegraphcore/h/Iw2DSceneGraphCore.h'
p1544
(lp1545
I1
a(dp1546
asS'e:/7.10/modules/iw2dscenegraphcore/source/Iw2DSceneGraphCore.cpp'
p1547
(lp1548
I1
ag1546
asS'e:/7.10/modules/iw2dscenegraphcore/iw2dscenegraphcore.mkf'
p1549
(lp1550
I1
a(dp1551
assS'iwutil'
p1552
(dp1553
S'e:/7.10/modules/iwutil/h/IwEvent.h'
p1554
(lp1555
I1
a(dp1556
asS'e:/7.10/modules/iwutil/h/IwDivTable.h'
p1557
(lp1558
I1
ag1556
asS'e:/7.10/modules/iwutil/h/IwClassFactory.h'
p1559
(lp1560
I1
ag1556
asS'e:/7.10/modules/iwutil/h/IwCopyingPtr.h'
p1561
(lp1562
I1
ag1556
asS'e:/7.10/modules/iwutil/h/IwSerialise.h'
p1563
(lp1564
I1
ag1556
asS'e:/7.10/modules/iwutil/h/IwMenu.h'
p1565
(lp1566
I1
ag1556
asS'e:/7.10/modules/iwutil/h/IwMath.h'
p1567
(lp1568
I1
ag1556
asS'e:/7.10/modules/iwutil/h/IwDivide.h'
p1569
(lp1570
I1
ag1556
asS'e:/7.10/modules/iwutil/h/IwFibre.h'
p1571
(lp1572
I1
ag1556
asS'e:/7.10/modules/iwutil/h/IwImage.h'
p1573
(lp1574
I1
ag1556
asS'e:/7.10/modules/iwutil/h/IwMemBucket.h'
p1575
(lp1576
I1
ag1556
asS'e:/7.10/modules/iwutil/docs/iwutil.config.txt'
p1577
(lp1578
I1
ag1556
asS'e:/7.10/modules/iwutil/h/IwRuntime.h'
p1579
(lp1580
I1
ag1556
asS'e:/7.10/modules/iwutil/h/IwList.h'
p1581
(lp1582
I1
ag1556
asS'e:/7.10/modules/iwutil/h/IwUtilInitTerm.h'
p1583
(lp1584
I1
ag1556
asS'e:/7.10/modules/iwutil/h/IwMemManagerDL.h'
p1585
(lp1586
I1
ag1556
asS'e:/7.10/modules/iwutil/h/IwMemory.h'
p1587
(lp1588
I1
ag1556
asS'e:/7.10/modules/iwutil/h/IwUtil.h'
p1589
(lp1590
I1
ag1556
asS'e:/7.10/modules/iwutil/h/IwTextParseable.h'
p1591
(lp1592
I1
ag1556
asS'e:/7.10/modules/iwutil/h/IwResource.h'
p1593
(lp1594
I1
ag1556
asS'e:/7.10/modules/iwutil/h/IwTextParser.h'
p1595
(lp1596
I1
ag1556
asS'e:/7.10/modules/iwutil/h/IwTextParserITX.h'
p1597
(lp1598
I1
ag1556
asS'e:/7.10/modules/iwutil/h/IwOptimiseThumb.h'
p1599
(lp1600
I1
ag1556
asS'e:/7.10/modules/iwutil/h/IwString.h'
p1601
(lp1602
I1
ag1556
asS'e:/7.10/modules/iwutil/h/IwSingleton.h'
p1603
(lp1604
I1
ag1556
asS'e:/7.10/modules/iwutil/h/IwKeymap.h'
p1605
(lp1606
I1
ag1556
asS'e:/7.10/modules/iwutil/h/IwImageHelper.h'
p1607
(lp1608
I1
ag1556
asS'e:/7.10/modules/iwutil/h/IwRandom.h'
p1609
(lp1610
I1
ag1556
asS'e:/7.10/modules/iwutil/h/IwArray.h'
p1611
(lp1612
I1
ag1556
asS'e:/7.10/modules/iwutil/h/IwTypes.h'
p1613
(lp1614
I1
ag1556
asS'e:/7.10/modules/iwutil/h/IwUncopyable.h'
p1615
(lp1616
I1
ag1556
asS'e:/7.10/modules/iwutil/h/IwHashString.h'
p1617
(lp1618
I1
ag1556
asS'e:/7.10/modules/iwutil/h/IwProfileMenu.h'
p1619
(lp1620
I1
ag1556
asS'e:/7.10/modules/iwutil/iwutil.mkf'
p1621
(lp1622
I1
a(dp1623
asS'e:/7.10/modules/iwutil/h/IwChar.h'
p1624
(lp1625
I1
ag1556
asS'e:/7.10/modules/iwutil/h/IwPath.h'
p1626
(lp1627
I1
ag1556
asS'e:/7.10/modules/iwutil/h/IwOptimiseSpeed.h'
p1628
(lp1629
I1
ag1556
asS'e:/7.10/modules/iwutil/h/IwManagedList.h'
p1630
(lp1631
I1
ag1556
asS'e:/7.10/modules/iwutil/h/IwMemBucketHelpers.h'
p1632
(lp1633
I1
ag1556
asS'e:/7.10/modules/iwutil/h/IwCore.h'
p1634
(lp1635
I1
ag1556
asS'e:/7.10/modules/iwutil/h/IwUTF8.h'
p1636
(lp1637
I1
ag1556
asS'e:/7.10/modules/iwutil/h/IwFile.h'
p1638
(lp1639
I1
ag1556
asS'e:/7.10/modules/iwutil/h/IwOptimiseARM.h'
p1640
(lp1641
I1
ag1556
asS'e:/7.10/modules/iwutil/h/IwBuffer.h'
p1642
(lp1643
I1
ag1556
asS'e:/7.10/modules/iwutil/h/IwOptimiseSize.h'
p1644
(lp1645
I1
ag1556
asS'e:/7.10/modules/iwutil/h/IwDebug.h'
p1646
(lp1647
I1
ag1556
asS'e:/7.10/modules/iwutil/h/IwAllocator.h'
p1648
(lp1649
I1
ag1556
asS'e:/7.10/modules/iwutil/h/IwVariableBitField.h'
p1650
(lp1651
I1
ag1556
asS'e:/7.10/modules/iwutil/h/IwManaged.h'
p1652
(lp1653
I1
ag1556
asS'e:/7.10/modules/iwutil/h/IwAutoFile.h'
p1654
(lp1655
I1
ag1556
asssS'(zlib)'
p1656
(dp1657
S'e:/7.10/modules/third_party/zlib/zlib.mkf'
p1658
(lp1659
I1
a(dp1660
asg1260
(dp1661
S'e:/7.10/modules/third_party/zlib/h/zlib.h'
p1662
(lp1663
I1
a(dp1664
asS'e:/7.10/modules/third_party/zlib/h/zconf.h'
p1665
(lp1666
I1
ag1664
asssS'c:/Users/Daniel/Documents/Bird/input.cpp'
p1667
(lp1668
I1
ag1322
asS'c:/Users/Daniel/Documents/Bird/Bird.cpp'
p1669
(lp1670
I1
ag1322
asS'(libjpeg)'
p1671
(dp1672
g1260
(dp1673
S'e:/7.10/modules/third_party/libjpeg/h/jversion.h'
p1674
(lp1675
I1
a(dp1676
asS'e:/7.10/modules/third_party/libjpeg/h/jpeglib.h'
p1677
(lp1678
I1
ag1676
asS'e:/7.10/modules/third_party/libjpeg/h/jdct.h'
p1679
(lp1680
I1
ag1676
asS'e:/7.10/modules/third_party/libjpeg/h/cderror.h'
p1681
(lp1682
I1
ag1676
asS'e:/7.10/modules/third_party/libjpeg/h/jdhuff.h'
p1683
(lp1684
I1
ag1676
asS'e:/7.10/modules/third_party/libjpeg/h/jinclude.h'
p1685
(lp1686
I1
ag1676
asS'e:/7.10/modules/third_party/libjpeg/h/jmorecfg.h'
p1687
(lp1688
I1
ag1676
asS'e:/7.10/modules/third_party/libjpeg/h/jerror.h'
p1689
(lp1690
I1
ag1676
asS'e:/7.10/modules/third_party/libjpeg/h/cdjpeg.h'
p1691
(lp1692
I1
ag1676
asS'e:/7.10/modules/third_party/libjpeg/h/jchuff.h'
p1693
(lp1694
I1
ag1676
asS'e:/7.10/modules/third_party/libjpeg/h/jconfig.h'
p1695
(lp1696
I1
ag1676
asS'e:/7.10/modules/third_party/libjpeg/h/jpegint.h'
p1697
(lp1698
I1
ag1676
asS'e:/7.10/modules/third_party/libjpeg/h/transupp.h'
p1699
(lp1700
I1
ag1676
asS'e:/7.10/modules/third_party/libjpeg/h/jmemsys.h'
p1701
(lp1702
I1
ag1676
assS'e:/7.10/modules/third_party/libjpeg/libjpeg.mkf'
p1703
(lp1704
I1
a(dp1705
asssS'files'
p1706
(dp1707
S'IwGxFontPreparedData.h'
p1708
g361
(cmkb_main
File
p1709
g363
Ntp1710
Rp1711
(dp1712
S'flags'
p1713
g1370
sS'group'
p1714
(lp1715
S"'Marmalade Studio'"
p1716
ag1366
asg387
g1380
sbsS'iterator'
p1717
g361
(g1709
g363
Ntp1718
Rp1719
(dp1720
g1713
(dp1721
sg1714
(lp1722
S"'Marmalade System (S3E)'"
p1723
aS'stdc headers'
p1724
aS'c++'
p1725
asg387
S'e:/7.10/s3e/h/std/c++/iterator'
p1726
sbsS'IwGL.h'
p1727
g361
(g1709
g363
Ntp1728
Rp1729
(dp1730
g1713
g1346
sg1714
(lp1731
S"'Marmalade Studio'"
p1732
ag1342
asg387
g1347
sbsS's3e.h'
p1733
g361
(g1709
g363
Ntp1734
Rp1735
(dp1736
g1713
g1721
sg1714
(lp1737
g1723
asg387
S'e:/7.10/s3e/h/s3e.h'
p1738
sbsS'errno.h'
p1739
g361
(g1709
g363
Ntp1740
Rp1741
(dp1742
g1713
g1721
sg1714
(lp1743
g1723
aS'stdc headers'
p1744
asg387
S'e:/7.10/s3e/h/std/errno.h'
p1745
sbsS'IwSingleton.h'
p1746
g361
(g1709
g363
Ntp1747
Rp1748
(dp1749
g1713
g1556
sg1714
(lp1750
S"'Marmalade Studio'"
p1751
ag1552
asg387
g1603
sbsS'dlfcn.h'
p1752
g361
(g1709
g363
Ntp1753
Rp1754
(dp1755
g1713
g1721
sg1714
g1743
sg387
S'e:/7.10/s3e/h/std/dlfcn.h'
p1756
sbsS'stdio_streambuf'
p1757
g361
(g1709
g363
Ntp1758
Rp1759
(dp1760
g1713
g1721
sg1714
g1722
sg387
S'e:/7.10/s3e/h/std/c++/stdio_streambuf'
p1761
sbsS'sched.h'
p1762
g361
(g1709
g363
Ntp1763
Rp1764
(dp1765
g1713
g1721
sg1714
g1743
sg387
S'e:/7.10/s3e/h/std/sched.h'
p1766
sbsS'IwGeomFMat2D.h'
p1767
g361
(g1709
g363
Ntp1768
Rp1769
(dp1770
g1713
g1392
sg1714
(lp1771
S"'Marmalade Studio'"
p1772
ag1388
asg387
g1397
sbsS'cassert'
p1773
g361
(g1709
g363
Ntp1774
Rp1775
(dp1776
g1713
g1721
sg1714
g1722
sg387
S'e:/7.10/s3e/h/std/c++/cassert'
p1777
sbsS'grp.h'
p1778
g361
(g1709
g363
Ntp1779
Rp1780
(dp1781
g1713
g1721
sg1714
g1743
sg387
S'e:/7.10/s3e/h/std/grp.h'
p1782
sbsS'list'
p1783
g361
(g1709
g363
Ntp1784
Rp1785
(dp1786
g1713
g1721
sg1714
g1722
sg387
S'e:/7.10/s3e/h/std/c++/list'
p1787
sbsS'IwGeomMat.h.tpl'
p1788
g361
(g1709
g363
Ntp1789
Rp1790
(dp1791
g1713
g1392
sg1714
g1771
sg387
g1421
sbsS'istream'
p1792
g361
(g1709
g363
Ntp1793
Rp1794
(dp1795
g1713
g1721
sg1714
g1722
sg387
S'e:/7.10/s3e/h/std/c++/istream'
p1796
sbsS'jpeglib.h'
p1797
g361
(g1709
g363
Ntp1798
Rp1799
(dp1800
g1713
g1676
sg1714
(lp1801
g1671
ag1260
asg387
g1677
sbsS'iw2d_public.defines.txt'
p1802
g361
(g1709
g363
Ntp1803
Rp1804
(dp1805
g1713
g1358
sg1714
(lp1806
S"'Marmalade Studio'"
p1807
ag1354
asg387
g1362
sbsS'iostream.h'
p1808
g361
(g1709
g363
Ntp1809
Rp1810
(dp1811
g1713
g1721
sg1714
g1722
sg387
S'e:/7.10/s3e/h/std/c++/iostream.h'
p1812
sbsS'string'
p1813
g361
(g1709
g363
Ntp1814
Rp1815
(dp1816
g1713
g1721
sg1714
g1722
sg387
S'e:/7.10/s3e/h/std/c++/string'
p1817
sbsS'IwMemory.h'
p1818
g361
(g1709
g363
Ntp1819
Rp1820
(dp1821
g1713
g1556
sg1714
g1750
sg387
g1587
sbsS'IwGeomPlane.h'
p1822
g361
(g1709
g363
Ntp1823
Rp1824
(dp1825
g1713
g1392
sg1714
g1771
sg387
g1401
sbsS'iw2d.config.txt'
p1826
g361
(g1709
g363
Ntp1827
Rp1828
(dp1829
g1713
g1358
sg1714
g1806
sg387
g1364
sbsS'iomanip'
p1830
g361
(g1709
g363
Ntp1831
Rp1832
(dp1833
g1713
g1721
sg1714
g1722
sg387
S'e:/7.10/s3e/h/std/c++/iomanip'
p1834
sbsS'iwgeom.mkf'
p1835
g361
(g1709
g363
Ntp1836
Rp1837
(dp1838
g1713
g1463
sg1714
g1771
sg387
g1461
sbsS'IwGxError.h'
p1839
g361
(g1709
g363
Ntp1840
Rp1841
(dp1842
g1713
g1492
sg1714
(lp1843
S"'Marmalade Studio'"
p1844
ag1488
asg387
g1497
sbsS'IwGeom.h'
p1845
g361
(g1709
g363
Ntp1846
Rp1847
(dp1848
g1713
g1392
sg1714
g1771
sg387
g1427
sbsS'IwGeomVec4.h'
p1849
g361
(g1709
g363
Ntp1850
Rp1851
(dp1852
g1713
g1392
sg1714
g1771
sg387
g1431
sbsS'dir.h'
p1853
g361
(g1709
g363
Ntp1854
Rp1855
(dp1856
g1713
g1721
sg1714
(lp1857
g1723
aS'stdc headers'
p1858
aS'sys'
p1859
asg387
S'e:/7.10/s3e/h/std/sys/dir.h'
p1860
sbsS'locale.h'
p1861
g361
(g1709
g363
Ntp1862
Rp1863
(dp1864
g1713
g1721
sg1714
g1743
sg387
S'e:/7.10/s3e/h/std/locale.h'
p1865
sbsS'vector'
p1866
g361
(g1709
g363
Ntp1867
Rp1868
(dp1869
g1713
g1721
sg1714
g1722
sg387
S'e:/7.10/s3e/h/std/c++/vector'
p1870
sbsS'IwManaged.h'
p1871
g361
(g1709
g363
Ntp1872
Rp1873
(dp1874
g1713
g1556
sg1714
g1750
sg387
g1652
sbsS's3eCompass.h'
p1875
g361
(g1709
g363
Ntp1876
Rp1877
(dp1878
g1713
g1721
sg1714
g1737
sg387
S'e:/7.10/s3e/h/s3eCompass.h'
p1879
sbsS'cderror.h'
p1880
g361
(g1709
g363
Ntp1881
Rp1882
(dp1883
g1713
g1676
sg1714
g1801
sg387
g1681
sbsS'climits'
p1884
g361
(g1709
g363
Ntp1885
Rp1886
(dp1887
g1713
g1721
sg1714
g1722
sg387
S'e:/7.10/s3e/h/std/c++/climits'
p1888
sbsS's3eVibra.h'
p1889
g361
(g1709
g363
Ntp1890
Rp1891
(dp1892
g1713
g1721
sg1714
g1737
sg387
S'e:/7.10/s3e/h/s3eVibra.h'
p1893
sbsS'jversion.h'
p1894
g361
(g1709
g363
Ntp1895
Rp1896
(dp1897
g1713
g1676
sg1714
g1801
sg387
g1674
sbsS'fnmatch.h'
p1898
g361
(g1709
g363
Ntp1899
Rp1900
(dp1901
g1713
g1721
sg1714
g1743
sg387
S'e:/7.10/s3e/h/std/fnmatch.h'
p1902
sbsS'IwGxState.h'
p1903
g361
(g1709
g363
Ntp1904
Rp1905
(dp1906
g1713
g1492
sg1714
g1843
sg387
g1538
sbsS's3eAudio.h'
p1907
g361
(g1709
g363
Ntp1908
Rp1909
(dp1910
g1713
g1721
sg1714
g1737
sg387
S'e:/7.10/s3e/h/s3eAudio.h'
p1911
sbsS's3eSurface.h'
p1912
g361
(g1709
g363
Ntp1913
Rp1914
(dp1915
g1713
g1721
sg1714
g1737
sg387
S'e:/7.10/s3e/h/s3eSurface.h'
p1916
sbsS'new'
p1917
g361
(g1709
g363
Ntp1918
Rp1919
(dp1920
g1713
g1721
sg1714
g1722
sg387
S'e:/7.10/s3e/h/std/c++/new'
p1921
sbsS's3eWindow.h'
p1922
g361
(g1709
g363
Ntp1923
Rp1924
(dp1925
g1713
g1721
sg1714
(lp1926
g1723
aS'Extensions'
p1927
asg387
S'e:/7.10/s3e/h/ext/s3eWindow.h'
p1928
sbsS'IwBuffer.h'
p1929
g361
(g1709
g363
Ntp1930
Rp1931
(dp1932
g1713
g1556
sg1714
g1750
sg387
g1642
sbsS'IwGeomQuat.h.tpl'
p1933
g361
(g1709
g363
Ntp1934
Rp1935
(dp1936
g1713
g1392
sg1714
g1771
sg387
g1405
sbsS's3eOSExec.h'
p1937
g361
(g1709
g363
Ntp1938
Rp1939
(dp1940
g1713
g1721
sg1714
g1926
sg387
S'e:/7.10/s3e/h/ext/s3eOSExec.h'
p1941
sbsS'IwGxTransformSW.h'
p1942
g361
(g1709
g363
Ntp1943
Rp1944
(dp1945
g1713
g1492
sg1714
g1843
sg387
g1514
sbsS'IwGxMetrics.h'
p1946
g361
(g1709
g363
Ntp1947
Rp1948
(dp1949
g1713
g1492
sg1714
g1843
sg387
g1506
sbsS'iwgxfont.config.txt'
p1950
g361
(g1709
g363
Ntp1951
Rp1952
(dp1953
g1713
g1370
sg1714
g1715
sg387
g1382
sbsS'gl2platform.h'
p1954
g361
(g1709
g363
Ntp1955
Rp1956
(dp1957
g1713
g1721
sg1714
(lp1958
g1723
aS'GL'
p1959
aS'GLES 2.0'
p1960
asg387
S'e:/7.10/s3e/h/GLES2/gl2platform.h'
p1961
sbsS'iw2dscenegraph.defines.txt'
p1962
g361
(g1709
g363
Ntp1963
Rp1964
(dp1965
g1713
g1334
sg1714
(lp1966
S"'Marmalade Studio'"
p1967
ag1330
asg387
g1338
sbsS'queue'
p1968
g361
(g1709
g363
Ntp1969
Rp1970
(dp1971
g1713
g1721
sg1714
g1722
sg387
S'e:/7.10/s3e/h/std/c++/queue'
p1972
sbsS'time_1.h'
p1973
g361
(g1709
g363
Ntp1974
Rp1975
(dp1976
g1713
g1721
sg1714
g1857
sg387
S'e:/7.10/s3e/h/std/sys/time.h'
p1977
sbsS'Iw2D.h'
p1978
g361
(g1709
g363
Ntp1979
Rp1980
(dp1981
g1713
g1358
sg1714
g1806
sg387
g1356
sbsS'IwGeomVec2.h'
p1982
g361
(g1709
g363
Ntp1983
Rp1984
(dp1985
g1713
g1392
sg1714
g1771
sg387
g1439
sbsS's3eDevice.h'
p1986
g361
(g1709
g363
Ntp1987
Rp1988
(dp1989
g1713
g1721
sg1714
g1737
sg387
S'e:/7.10/s3e/h/s3eDevice.h'
p1990
sbsS'malloc.h'
p1991
g361
(g1709
g363
Ntp1992
Rp1993
(dp1994
g1713
g1721
sg1714
g1743
sg387
S'e:/7.10/s3e/h/std/malloc.h'
p1995
sbsS'stdarg.h'
p1996
g361
(g1709
g363
Ntp1997
Rp1998
(dp1999
g1713
g1721
sg1714
g1743
sg387
S'e:/7.10/s3e/h/std/stdarg.h'
p2000
sbsS'IwGeomCore.h'
p2001
g361
(g1709
g363
Ntp2002
Rp2003
(dp2004
g1713
g1392
sg1714
g1771
sg387
g1449
sbsS'Iw2DSceneGraph.h'
p2005
g361
(g1709
g363
Ntp2006
Rp2007
(dp2008
g1713
g1334
sg1714
g1966
sg387
g1332
sbsS'endian.h'
p2009
g361
(g1709
g363
Ntp2010
Rp2011
(dp2012
g1713
g1721
sg1714
g1743
sg387
S'e:/7.10/s3e/h/std/endian.h'
p2013
sbsS'gl3ext.h'
p2014
g361
(g1709
g363
Ntp2015
Rp2016
(dp2017
g1713
g1721
sg1714
(lp2018
g1723
aS'GL'
p2019
aS'GLES 3.0'
p2020
asg387
S'e:/7.10/s3e/h/GLES3/gl3ext.h'
p2021
sbsS'glob.h'
p2022
g361
(g1709
g363
Ntp2023
Rp2024
(dp2025
g1713
g1721
sg1714
g1743
sg387
S'e:/7.10/s3e/h/std/glob.h'
p2026
sbsS'fstream'
p2027
g361
(g1709
g363
Ntp2028
Rp2029
(dp2030
g1713
g1721
sg1714
g1722
sg387
S'e:/7.10/s3e/h/std/c++/fstream'
p2031
sbsS's3eCamera.h'
p2032
g361
(g1709
g363
Ntp2033
Rp2034
(dp2035
g1713
g1721
sg1714
g1737
sg387
S'e:/7.10/s3e/h/s3eCamera.h'
p2036
sbsS'jconfig.h'
p2037
g361
(g1709
g363
Ntp2038
Rp2039
(dp2040
g1713
g1676
sg1714
g1801
sg387
g1695
sbsS'memory'
p2041
g361
(g1709
g363
Ntp2042
Rp2043
(dp2044
g1713
g1721
sg1714
g1722
sg387
S'e:/7.10/s3e/h/std/c++/memory'
p2045
sbsS'egl.h'
p2046
g361
(g1709
g363
Ntp2047
Rp2048
(dp2049
g1713
g1721
sg1714
(lp2050
g1723
aS'GL'
p2051
aS'EGL'
p2052
asg387
S'e:/7.10/s3e/h/EGL/egl.h'
p2053
sbsS'IwClip.inl'
p2054
g361
(g1709
g363
Ntp2055
Rp2056
(dp2057
g1713
g1492
sg1714
g1843
sg387
g1528
sbsS'IwMemManagerDL.h'
p2058
g361
(g1709
g363
Ntp2059
Rp2060
(dp2061
g1713
g1556
sg1714
g1750
sg387
g1585
sbsS'deque'
p2062
g361
(g1709
g363
Ntp2063
Rp2064
(dp2065
g1713
g1721
sg1714
g1722
sg387
S'e:/7.10/s3e/h/std/c++/deque'
p2066
sbsS'IwString.h'
p2067
g361
(g1709
g363
Ntp2068
Rp2069
(dp2070
g1713
g1556
sg1714
g1750
sg387
g1601
sbsS'cwchar'
p2071
g361
(g1709
g363
Ntp2072
Rp2073
(dp2074
g1713
g1721
sg1714
g1722
sg387
S'e:/7.10/s3e/h/std/c++/cwchar'
p2075
sbsS'iwutil.mkf'
p2076
g361
(g1709
g363
Ntp2077
Rp2078
(dp2079
g1713
g1623
sg1714
g1750
sg387
g1621
sbsS'csignal'
p2080
g361
(g1709
g363
Ntp2081
Rp2082
(dp2083
g1713
g1721
sg1714
g1722
sg387
S'e:/7.10/s3e/h/std/c++/csignal'
p2084
sbsS'float.h'
p2085
g361
(g1709
g363
Ntp2086
Rp2087
(dp2088
g1713
g1721
sg1714
g1743
sg387
S'e:/7.10/s3e/h/std/float.h'
p2089
sbsS'pthread_alloc'
p2090
g361
(g1709
g363
Ntp2091
Rp2092
(dp2093
g1713
g1721
sg1714
g1722
sg387
S'e:/7.10/s3e/h/std/c++/pthread_alloc'
p2094
sbsS'getopt.h'
p2095
g361
(g1709
g363
Ntp2096
Rp2097
(dp2098
g1713
g1721
sg1714
g1743
sg387
S'e:/7.10/s3e/h/std/getopt.h'
p2099
sbsS'IwOptimiseARM.h'
p2100
g361
(g1709
g363
Ntp2101
Rp2102
(dp2103
g1713
g1556
sg1714
g1750
sg387
g1640
sbsS'times.h'
p2104
g361
(g1709
g363
Ntp2105
Rp2106
(dp2107
g1713
g1721
sg1714
g1857
sg387
S'e:/7.10/s3e/h/std/sys/times.h'
p2108
sbsS'IwGeomFSphere.h'
p2109
g361
(g1709
g363
Ntp2110
Rp2111
(dp2112
g1713
g1392
sg1714
g1771
sg387
g1451
sbsS'amazon-ads-android-sdk.mkf'
p2113
g361
(g1709
g363
Ntp2114
Rp2115
(dp2116
g1713
g1274
sg1714
(lp2117
g1270
asg387
g1272
sbsS'IwTypes.h'
p2118
g361
(g1709
g363
Ntp2119
Rp2120
(dp2121
g1713
g1556
sg1714
g1750
sg387
g1613
sbsS'unistd.h'
p2122
g361
(g1709
g363
Ntp2123
Rp2124
(dp2125
g1713
g1721
sg1714
g1743
sg387
S'e:/7.10/s3e/h/std/unistd.h'
p2126
sbsS's3eCompression.h'
p2127
g361
(g1709
g363
Ntp2128
Rp2129
(dp2130
g1713
g1721
sg1714
g1737
sg387
S'e:/7.10/s3e/h/s3eCompression.h'
p2131
sbsS'langinfo.h'
p2132
g361
(g1709
g363
Ntp2133
Rp2134
(dp2135
g1713
g1721
sg1714
g1743
sg387
S'e:/7.10/s3e/h/std/langinfo.h'
p2136
sbsS's3edebugHeap.h'
p2137
g361
(g1709
g363
Ntp2138
Rp2139
(dp2140
g1713
g1721
sg1714
g1926
sg387
S'e:/7.10/s3e/h/ext/s3edebugHeap.h'
p2141
sbsS'AirplayVersion.h'
p2142
g361
(g1709
g363
Ntp2143
Rp2144
(dp2145
g1713
g1721
sg1714
g1737
sg387
S'e:/7.10/s3e/h/AirplayVersion.h'
p2146
sbsS'gl2extimg.h'
p2147
g361
(g1709
g363
Ntp2148
Rp2149
(dp2150
g1713
g1721
sg1714
g1958
sg387
S'e:/7.10/s3e/h/GLES2/gl2extimg.h'
p2151
sbsS'app.config.txt'
p2152
g361
(g1709
g363
Ntp2153
Rp2154
(dp2155
g1713
(dp2156
sg1714
g4
sg387
S'c:/Users/Daniel/Documents/Bird/data/app.config.txt'
p2157
sbsS'IwGeomSqrt.h'
p2158
g361
(g1709
g363
Ntp2159
Rp2160
(dp2161
g1713
g1392
sg1714
g1771
sg387
g1411
sbsS'tiniconv_int.h'
p2162
g361
(g1709
g363
Ntp2163
Rp2164
(dp2165
g1713
g1279
sg1714
(lp2166
g1275
asg387
g1280
sbsS'syslog.h'
p2167
g361
(g1709
g363
Ntp2168
Rp2169
(dp2170
g1713
g1721
sg1714
g1743
sg387
S'e:/7.10/s3e/h/std/syslog.h'
p2171
sbsS'IwGxFontTypes.h'
p2172
g361
(g1709
g363
Ntp2173
Rp2174
(dp2175
g1713
g1370
sg1714
g1715
sg387
g1375
sbsS'IwGeomFIntersect.h'
p2176
g361
(g1709
g363
Ntp2177
Rp2178
(dp2179
g1713
g1392
sg1714
g1771
sg387
g1413
sbsS'hash_map'
p2180
g361
(g1709
g363
Ntp2181
Rp2182
(dp2183
g1713
g1721
sg1714
g1722
sg387
S'e:/7.10/s3e/h/std/c++/hash_map'
p2184
sbsS's3e.mkf'
p2185
g361
(g1709
g363
Ntp2186
Rp2187
(dp2188
g1713
(dp2189
sg1714
g1737
sg387
S'e:/7.10/s3e/s3e.mkf'
p2190
sbsS'IwGeomMat2D.h.tpl'
p2191
g361
(g1709
g363
Ntp2192
Rp2193
(dp2194
g1713
g1392
sg1714
g1771
sg387
g1457
sbsS's3eOSReadString.h'
p2195
g361
(g1709
g363
Ntp2196
Rp2197
(dp2198
g1713
g1721
sg1714
g1926
sg387
S'e:/7.10/s3e/h/ext/s3eOSReadString.h'
p2199
sbsS'map'
p2200
g361
(g1709
g363
Ntp2201
Rp2202
(dp2203
g1713
g1721
sg1714
g1722
sg387
S'e:/7.10/s3e/h/std/c++/map'
p2204
sbsS'iwtween.mkf'
p2205
g361
(g1709
g363
Ntp2206
Rp2207
(dp2208
g1713
g1257
sg1714
(lp2209
g1248
asg387
g1255
sbsS'IwOptimiseSpeed.h'
p2210
g361
(g1709
g363
Ntp2211
Rp2212
(dp2213
g1713
g1556
sg1714
g1750
sg387
g1628
sbsS'msl_string.h'
p2214
g361
(g1709
g363
Ntp2215
Rp2216
(dp2217
g1713
g1721
sg1714
g1722
sg387
S'e:/7.10/s3e/h/std/c++/msl_string.h'
p2218
sbsS'select.h'
p2219
g361
(g1709
g363
Ntp2220
Rp2221
(dp2222
g1713
g1721
sg1714
g1857
sg387
S'e:/7.10/s3e/h/std/sys/select.h'
p2223
sbsS'zlib.mkf'
p2224
g361
(g1709
g363
Ntp2225
Rp2226
(dp2227
g1713
g1660
sg1714
(lp2228
g1656
asg387
g1658
sbsS'signal.h'
p2229
g361
(g1709
g363
Ntp2230
Rp2231
(dp2232
g1713
g1721
sg1714
g1743
sg387
S'e:/7.10/s3e/h/std/signal.h'
p2233
sbsS'sigcontext.h'
p2234
g361
(g1709
g363
Ntp2235
Rp2236
(dp2237
g1713
g1721
sg1714
g1743
sg387
S'e:/7.10/s3e/h/std/sigcontext.h'
p2238
sbsS'libpng.mkf'
p2239
g361
(g1709
g363
Ntp2240
Rp2241
(dp2242
g1713
g1269
sg1714
(lp2243
g1258
asg387
g1267
sbsS's3eClipboard.h'
p2244
g361
(g1709
g363
Ntp2245
Rp2246
(dp2247
g1713
g1721
sg1714
g1737
sg387
S'e:/7.10/s3e/h/s3eClipboard.h'
p2248
sbsS'IwGxFuncTable.h'
p2249
g361
(g1709
g363
Ntp2250
Rp2251
(dp2252
g1713
g1492
sg1714
g1843
sg387
g1510
sbsS'IwResHandlerGROUP.h'
p2253
g361
(g1709
g363
Ntp2254
Rp2255
(dp2256
g1713
g1468
sg1714
(lp2257
g1328
ag1464
asg387
g1471
sbsS's3eDebug.h'
p2258
g361
(g1709
g363
Ntp2259
Rp2260
(dp2261
g1713
g1721
sg1714
g1737
sg387
S'e:/7.10/s3e/h/s3eDebug.h'
p2262
sbsS'socket.h'
p2263
g361
(g1709
g363
Ntp2264
Rp2265
(dp2266
g1713
g1721
sg1714
g1857
sg387
S'e:/7.10/s3e/h/std/sys/socket.h'
p2267
sbsS'glext.h'
p2268
g361
(g1709
g363
Ntp2269
Rp2270
(dp2271
g1713
g1721
sg1714
(lp2272
g1723
aS'GL'
p2273
aS'GLES 1.x'
p2274
asg387
S'e:/7.10/s3e/h/GLES/glext.h'
p2275
sbsS'typeinfo.h'
p2276
g361
(g1709
g363
Ntp2277
Rp2278
(dp2279
g1713
g1721
sg1714
g1722
sg387
S'e:/7.10/s3e/h/std/c++/typeinfo.h'
p2280
sbsS'typeinfo'
p2281
g361
(g1709
g363
Ntp2282
Rp2283
(dp2284
g1713
g1721
sg1714
g1722
sg387
S'e:/7.10/s3e/h/std/c++/typeinfo'
p2285
sbsS'fstream.h'
p2286
g361
(g1709
g363
Ntp2287
Rp2288
(dp2289
g1713
g1721
sg1714
g1722
sg387
S'e:/7.10/s3e/h/std/c++/fstream.h'
p2290
sbsS's3ePointer.h'
p2291
g361
(g1709
g363
Ntp2292
Rp2293
(dp2294
g1713
g1721
sg1714
g1737
sg387
S'e:/7.10/s3e/h/s3ePointer.h'
p2295
sbsS'iw2d.mkf'
p2296
g361
(g1709
g363
Ntp2297
Rp2298
(dp2299
g1713
g1361
sg1714
g1806
sg387
g1359
sbsS'PVRTexTool.h'
p2300
g361
(g1709
g363
Ntp2301
Rp2302
(dp2303
g1713
g1310
sg1714
(lp2304
S'Extensions'
p2305
ag1306
asg387
g1308
sbsS's3eGL.h'
p2306
g361
(g1709
g363
Ntp2307
Rp2308
(dp2309
g1713
g1721
sg1714
g1737
sg387
S'e:/7.10/s3e/h/s3eGL.h'
p2310
sbsS'IwGeomFVec2.h'
p2311
g361
(g1709
g363
Ntp2312
Rp2313
(dp2314
g1713
g1392
sg1714
g1771
sg387
g1395
sbsS'IwGeomSVec4.h'
p2315
g361
(g1709
g363
Ntp2316
Rp2317
(dp2318
g1713
g1392
sg1714
g1771
sg387
g1425
sbsS'poll.h'
p2319
g361
(g1709
g363
Ntp2320
Rp2321
(dp2322
g1713
g1721
sg1714
g1743
sg387
S'e:/7.10/s3e/h/std/poll.h'
p2323
sbsS'IwMatAnim.h'
p2324
g361
(g1709
g363
Ntp2325
Rp2326
(dp2327
g1713
g1492
sg1714
g1843
sg387
g1520
sbsS'PVRTexTool.defines.txt'
p2328
g361
(g1709
g363
Ntp2329
Rp2330
(dp2331
g1713
g1310
sg1714
(lp2332
g2305
ag1306
ag1311
asg387
g1313
sbsS'IwGx.h'
p2333
g361
(g1709
g363
Ntp2334
Rp2335
(dp2336
g1713
g1492
sg1714
g1843
sg387
g1495
sbsS'valarray'
p2337
g361
(g1709
g363
Ntp2338
Rp2339
(dp2340
g1713
g1721
sg1714
g1722
sg387
S'e:/7.10/s3e/h/std/c++/valarray'
p2341
sbsS'iosfwd'
p2342
g361
(g1709
g363
Ntp2343
Rp2344
(dp2345
g1713
g1721
sg1714
g1722
sg387
S'e:/7.10/s3e/h/std/c++/iosfwd'
p2346
sbsS'gl2.h'
p2347
g361
(g1709
g363
Ntp2348
Rp2349
(dp2350
g1713
g1721
sg1714
g1958
sg387
S'e:/7.10/s3e/h/GLES2/gl2.h'
p2351
sbsS'jpegint.h'
p2352
g361
(g1709
g363
Ntp2353
Rp2354
(dp2355
g1713
g1676
sg1714
g1801
sg387
g1697
sbsS'stdiostream.h'
p2356
g361
(g1709
g363
Ntp2357
Rp2358
(dp2359
g1713
g1721
sg1714
g1722
sg387
S'e:/7.10/s3e/h/std/c++/stdiostream.h'
p2360
sbsS'mem.h'
p2361
g361
(g1709
g363
Ntp2362
Rp2363
(dp2364
g1713
g1721
sg1714
g1722
sg387
S'e:/7.10/s3e/h/std/c++/mem.h'
p2365
sbsS'jerror.h'
p2366
g361
(g1709
g363
Ntp2367
Rp2368
(dp2369
g1713
g1676
sg1714
g1801
sg387
g1689
sbsS'zconf.h'
p2370
g361
(g1709
g363
Ntp2371
Rp2372
(dp2373
g1713
g1664
sg1714
(lp2374
g1656
ag1260
asg387
g1665
sbsS's3e.config.txt'
p2375
g361
(g1709
g363
Ntp2376
Rp2377
(dp2378
g1713
g1721
sg1714
g1737
sg387
S'e:/7.10/s3e/s3e.config.txt'
p2379
sbsS'numeric'
p2380
g361
(g1709
g363
Ntp2381
Rp2382
(dp2383
g1713
g1721
sg1714
g1722
sg387
S'e:/7.10/s3e/h/std/c++/numeric'
p2384
sbsS'utime.h'
p2385
g361
(g1709
g363
Ntp2386
Rp2387
(dp2388
g1713
g1721
sg1714
g1743
sg387
S'e:/7.10/s3e/h/std/utime.h'
p2389
sbsS'jdhuff.h'
p2390
g361
(g1709
g363
Ntp2391
Rp2392
(dp2393
g1713
g1676
sg1714
g1801
sg387
g1683
sbsS'IwGxStream.h'
p2394
g361
(g1709
g363
Ntp2395
Rp2396
(dp2397
g1713
g1492
sg1714
g1843
sg387
g1508
sbsS'IwImage.h'
p2398
g361
(g1709
g363
Ntp2399
Rp2400
(dp2401
g1713
g1556
sg1714
g1750
sg387
g1573
sbsS's3eImagePicker.h'
p2402
g361
(g1709
g363
Ntp2403
Rp2404
(dp2405
g1713
g1721
sg1714
g1926
sg387
S'e:/7.10/s3e/h/ext/s3eImagePicker.h'
p2406
sbsS'stdlib.h'
p2407
g361
(g1709
g363
Ntp2408
Rp2409
(dp2410
g1713
g1721
sg1714
g1743
sg387
S'e:/7.10/s3e/h/std/stdlib.h'
p2411
sbsS'IwCopyingPtr.h'
p2412
g361
(g1709
g363
Ntp2413
Rp2414
(dp2415
g1713
g1556
sg1714
g1750
sg387
g1561
sbsS'iostream'
p2416
g361
(g1709
g363
Ntp2417
Rp2418
(dp2419
g1713
g1721
sg1714
g1722
sg387
S'e:/7.10/s3e/h/std/c++/iostream'
p2420
sbsS'png.h'
p2421
g361
(g1709
g363
Ntp2422
Rp2423
(dp2424
g1713
g1264
sg1714
(lp2425
g1258
ag1260
asg387
g1265
sbsS'stddef.h'
p2426
g361
(g1709
g363
Ntp2427
Rp2428
(dp2429
g1713
g1721
sg1714
g1743
sg387
S'e:/7.10/s3e/h/std/stddef.h'
p2430
sbsS'setjmp_win32.h'
p2431
g361
(g1709
g363
Ntp2432
Rp2433
(dp2434
g1713
g1721
sg1714
g1743
sg387
S'e:/7.10/s3e/h/std/setjmp_win32.h'
p2435
sbsS'IwGxPrint.h'
p2436
g361
(g1709
g363
Ntp2437
Rp2438
(dp2439
g1713
g1492
sg1714
g1843
sg387
g1490
sbsS'iwgx_public.defines.txt'
p2440
g361
(g1709
g363
Ntp2441
Rp2442
(dp2443
g1713
g1492
sg1714
g1843
sg387
g1540
sbsS'streambuf.h'
p2444
g361
(g1709
g363
Ntp2445
Rp2446
(dp2447
g1713
g1721
sg1714
g1722
sg387
S'e:/7.10/s3e/h/std/c++/streambuf.h'
p2448
sbsS'IwGeomFPlane.h'
p2449
g361
(g1709
g363
Ntp2450
Rp2451
(dp2452
g1713
g1392
sg1714
g1771
sg387
g1423
sbsS'wchar.h'
p2453
g361
(g1709
g363
Ntp2454
Rp2455
(dp2456
g1713
g1721
sg1714
g1743
sg387
S'e:/7.10/s3e/h/std/wchar.h'
p2457
sbsS's3eCameraCapture.h'
p2458
g361
(g1709
g363
Ntp2459
Rp2460
(dp2461
g1713
g1721
sg1714
g1926
sg387
S'e:/7.10/s3e/h/ext/s3eCameraCapture.h'
p2462
sbsS'eglext.h'
p2463
g361
(g1709
g363
Ntp2464
Rp2465
(dp2466
g1713
g1721
sg1714
g2050
sg387
S'e:/7.10/s3e/h/EGL/eglext.h'
p2467
sbsS'IwResHandlerImage.h'
p2468
g361
(g1709
g363
Ntp2469
Rp2470
(dp2471
g1713
g1468
sg1714
g2257
sg387
g1466
sbsS'strstream.h'
p2472
g361
(g1709
g363
Ntp2473
Rp2474
(dp2475
g1713
g1721
sg1714
g1722
sg387
S'e:/7.10/s3e/h/std/c++/strstream.h'
p2476
sbsS'tiniconv.h'
p2477
g361
(g1709
g363
Ntp2478
Rp2479
(dp2480
g1713
g1279
sg1714
g2166
sg387
g1277
sbsS'IwGLExt.h'
p2481
g361
(g1709
g363
Ntp2482
Rp2483
(dp2484
g1713
g1346
sg1714
g1731
sg387
g1344
sbsS'app.icf'
p2485
g361
(g1709
g363
Ntp2486
Rp2487
(dp2488
g1713
(dp2489
sg1714
g4
sg387
S'c:/Users/Daniel/Documents/Bird/data/app.icf'
p2490
sbsS'IwClassFactory.h'
p2491
g361
(g1709
g363
Ntp2492
Rp2493
(dp2494
g1713
g1556
sg1714
g1750
sg387
g1559
sbsS'file.h'
p2495
g361
(g1709
g363
Ntp2496
Rp2497
(dp2498
g1713
g1721
sg1714
g1857
sg387
S'e:/7.10/s3e/h/std/sys/file.h'
p2499
sbsS'cstring'
p2500
g361
(g1709
g363
Ntp2501
Rp2502
(dp2503
g1713
g1721
sg1714
g1722
sg387
S'e:/7.10/s3e/h/std/c++/cstring'
p2504
sbsS'iwutil.config.txt'
p2505
g361
(g1709
g363
Ntp2506
Rp2507
(dp2508
g1713
g1556
sg1714
g1750
sg387
g1577
sbsS's3eSMS.h'
p2509
g361
(g1709
g363
Ntp2510
Rp2511
(dp2512
g1713
g1721
sg1714
g1926
sg387
S'e:/7.10/s3e/h/ext/s3eSMS.h'
p2513
sbsS'limits.h'
p2514
g361
(g1709
g363
Ntp2515
Rp2516
(dp2517
g1713
g1721
sg1714
g1743
sg387
S'e:/7.10/s3e/h/std/limits.h'
p2518
sbsS'iwgl.config.txt'
p2519
g361
(g1709
g363
Ntp2520
Rp2521
(dp2522
g1713
g1346
sg1714
g1731
sg387
g1352
sbsS'IwMaterial.h'
p2523
g361
(g1709
g363
Ntp2524
Rp2525
(dp2526
g1713
g1492
sg1714
g1843
sg387
g1530
sbsS'amazon-ads-ios-sdk.mkf'
p2527
g361
(g1709
g363
Ntp2528
Rp2529
(dp2530
g1713
g1289
sg1714
(lp2531
g1285
asg387
g1287
sbsS'PVRTexTool_interface.cpp'
p2532
g361
(g1709
g363
Ntp2533
Rp2534
(dp2535
g1713
g1310
sg1714
g2332
sg387
g1315
sbsS'IwGxSurface.h'
p2536
g361
(g1709
g363
Ntp2537
Rp2538
(dp2539
g1713
g1492
sg1714
g1843
sg387
g1512
sbsS's3eSocket.h'
p2540
g361
(g1709
g363
Ntp2541
Rp2542
(dp2543
g1713
g1721
sg1714
g1737
sg387
S'e:/7.10/s3e/h/s3eSocket.h'
p2544
sbsS'IwAutoFile.h'
p2545
g361
(g1709
g363
Ntp2546
Rp2547
(dp2548
g1713
g1556
sg1714
g1750
sg387
g1654
sbsS'ipc.h'
p2549
g361
(g1709
g363
Ntp2550
Rp2551
(dp2552
g1713
g1721
sg1714
g1857
sg387
S'e:/7.10/s3e/h/std/sys/ipc.h'
p2553
sbsS'poll_1.h'
p2554
g361
(g1709
g363
Ntp2555
Rp2556
(dp2557
g1713
g1721
sg1714
g1857
sg387
S'e:/7.10/s3e/h/std/sys/poll.h'
p2558
sbsS's3eThread.h'
p2559
g361
(g1709
g363
Ntp2560
Rp2561
(dp2562
g1713
g1721
sg1714
g1737
sg387
S'e:/7.10/s3e/h/s3eThread.h'
p2563
sbsS'ucontext.h'
p2564
g361
(g1709
g363
Ntp2565
Rp2566
(dp2567
g1713
g1721
sg1714
g1743
sg387
S'e:/7.10/s3e/h/std/ucontext.h'
p2568
sbsS'time.h'
p2569
g361
(g1709
g363
Ntp2570
Rp2571
(dp2572
g1713
g1721
sg1714
g1743
sg387
S'e:/7.10/s3e/h/std/time.h'
p2573
sbsS'jchuff.h'
p2574
g361
(g1709
g363
Ntp2575
Rp2576
(dp2577
g1713
g1676
sg1714
g1801
sg387
g1693
sbsS's3eSoundRecord.h'
p2578
g361
(g1709
g363
Ntp2579
Rp2580
(dp2581
g1713
g1721
sg1714
g1737
sg387
S'e:/7.10/s3e/h/s3eSoundRecord.h'
p2582
sbsS'IwFibre.h'
p2583
g361
(g1709
g363
Ntp2584
Rp2585
(dp2586
g1713
g1556
sg1714
g1750
sg387
g1571
sbsS's3eVersion.h'
p2587
g361
(g1709
g363
Ntp2588
Rp2589
(dp2590
g1713
g1721
sg1714
g1737
sg387
S'e:/7.10/s3e/h/s3eVersion.h'
p2591
sbsS'input.cpp'
p2592
g361
(g1709
g363
Ntp2593
Rp2594
(dp2595
g1713
g1322
sg1714
(lp2596
sg387
g1667
sbsS'IwGxFontGlyph.h'
p2597
g361
(g1709
g363
Ntp2598
Rp2599
(dp2600
g1713
g1370
sg1714
g1715
sg387
g1368
sbsS's3eTypes.h'
p2601
g361
(g1709
g363
Ntp2602
Rp2603
(dp2604
g1713
g1721
sg1714
g1737
sg387
S'e:/7.10/s3e/h/s3eTypes.h'
p2605
sbsS'signal_2.h'
p2606
g361
(g1709
g363
Ntp2607
Rp2608
(dp2609
g1713
g1721
sg1714
g1722
sg387
S'e:/7.10/s3e/h/std/c++/signal.h'
p2610
sbsS'termios.h'
p2611
g361
(g1709
g363
Ntp2612
Rp2613
(dp2614
g1713
g1721
sg1714
g1743
sg387
S'e:/7.10/s3e/h/std/termios.h'
p2615
sbsS's3eAmazonAds_interface.cpp'
p2616
g361
(g1709
g363
Ntp2617
Rp2618
(dp2619
g1713
g1298
sg1714
(lp2620
g1290
ag1292
ag1294
asg387
g1296
sbsS'iw2dscenegraph.mkf'
p2621
g361
(g1709
g363
Ntp2622
Rp2623
(dp2624
g1713
g1337
sg1714
g1966
sg387
g1335
sbsS'slist'
p2625
g361
(g1709
g363
Ntp2626
Rp2627
(dp2628
g1713
g1721
sg1714
g1722
sg387
S'e:/7.10/s3e/h/std/c++/slist'
p2629
sbsS'cstdlib'
p2630
g361
(g1709
g363
Ntp2631
Rp2632
(dp2633
g1713
g1721
sg1714
g1722
sg387
S'e:/7.10/s3e/h/std/c++/cstdlib'
p2634
sbsS's3eLocation.h'
p2635
g361
(g1709
g363
Ntp2636
Rp2637
(dp2638
g1713
g1721
sg1714
g1737
sg387
S'e:/7.10/s3e/h/s3eLocation.h'
p2639
sbsS'IwMemBucketHelpers.h'
p2640
g361
(g1709
g363
Ntp2641
Rp2642
(dp2643
g1713
g1556
sg1714
g1750
sg387
g1632
sbsS's3eHash.h'
p2644
g361
(g1709
g363
Ntp2645
Rp2646
(dp2647
g1713
g1721
sg1714
g1737
sg387
S'e:/7.10/s3e/h/s3eHash.h'
p2648
sbsS'IwGeomFMat.h'
p2649
g361
(g1709
g363
Ntp2650
Rp2651
(dp2652
g1713
g1392
sg1714
g1771
sg387
g1443
sbsS'type_traits.h'
p2653
g361
(g1709
g363
Ntp2654
Rp2655
(dp2656
g1713
g1721
sg1714
g1722
sg387
S'e:/7.10/s3e/h/std/c++/type_traits.h'
p2657
sbsS's3eAtomic.h'
p2658
g361
(g1709
g363
Ntp2659
Rp2660
(dp2661
g1713
g1721
sg1714
g1737
sg387
S'e:/7.10/s3e/h/s3eAtomic.h'
p2662
sbsS'IwMenu.h'
p2663
g361
(g1709
g363
Ntp2664
Rp2665
(dp2666
g1713
g1556
sg1714
g1750
sg387
g1565
sbsS'IwResHandlerITX.h'
p2667
g361
(g1709
g363
Ntp2668
Rp2669
(dp2670
g1713
g1468
sg1714
g2257
sg387
g1473
sbsS'IwArray.h'
p2671
g361
(g1709
g363
Ntp2672
Rp2673
(dp2674
g1713
g1556
sg1714
g1750
sg387
g1611
sbsS'IwUTF8.h'
p2675
g361
(g1709
g363
Ntp2676
Rp2677
(dp2678
g1713
g1556
sg1714
g1750
sg387
g1636
sbsS'math_rvct.h'
p2679
g361
(g1709
g363
Ntp2680
Rp2681
(dp2682
g1713
g1721
sg1714
g1743
sg387
S'e:/7.10/s3e/h/std/math_rvct.h'
p2683
sbsS'IwUtil.h'
p2684
g361
(g1709
g363
Ntp2685
Rp2686
(dp2687
g1713
g1556
sg1714
g1750
sg387
g1589
sbsS'IwFColour.h'
p2688
g361
(g1709
g363
Ntp2689
Rp2690
(dp2691
g1713
g1492
sg1714
g1843
sg387
g1534
sbsS's3eamazonads.mkf'
p2692
g361
(g1709
g363
Ntp2693
Rp2694
(dp2695
g1713
g1305
sg1714
(lp2696
g1290
ag1292
asg387
g1303
sbsS'wctype.h'
p2697
g361
(g1709
g363
Ntp2698
Rp2699
(dp2700
g1713
g1721
sg1714
g1743
sg387
S'e:/7.10/s3e/h/std/wctype.h'
p2701
sbsS'cstddef'
p2702
g361
(g1709
g363
Ntp2703
Rp2704
(dp2705
g1713
g1721
sg1714
g1722
sg387
S'e:/7.10/s3e/h/std/c++/cstddef'
p2706
sbsS'assert.h'
p2707
g361
(g1709
g363
Ntp2708
Rp2709
(dp2710
g1713
g1721
sg1714
g1743
sg387
S'e:/7.10/s3e/h/std/assert.h'
p2711
sbsS'mman.h'
p2712
g361
(g1709
g363
Ntp2713
Rp2714
(dp2715
g1713
g1721
sg1714
g1857
sg387
S'e:/7.10/s3e/h/std/sys/mman.h'
p2716
sbsS'IwRandom.h'
p2717
g361
(g1709
g363
Ntp2718
Rp2719
(dp2720
g1713
g1556
sg1714
g1750
sg387
g1609
sbsS'libgen.h'
p2721
g361
(g1709
g363
Ntp2722
Rp2723
(dp2724
g1713
g1721
sg1714
g1743
sg387
S'e:/7.10/s3e/h/std/libgen.h'
p2725
sbsS'utsname.h'
p2726
g361
(g1709
g363
Ntp2727
Rp2728
(dp2729
g1713
g1721
sg1714
g1857
sg387
S'e:/7.10/s3e/h/std/sys/utsname.h'
p2730
sbsS'wait.h'
p2731
g361
(g1709
g363
Ntp2732
Rp2733
(dp2734
g1713
g1721
sg1714
g1857
sg387
S'e:/7.10/s3e/h/std/sys/wait.h'
p2735
sbsS'param.h'
p2736
g361
(g1709
g363
Ntp2737
Rp2738
(dp2739
g1713
g1721
sg1714
g1857
sg387
S'e:/7.10/s3e/h/std/sys/param.h'
p2740
sbsS'IwDivide.h'
p2741
g361
(g1709
g363
Ntp2742
Rp2743
(dp2744
g1713
g1556
sg1714
g1750
sg387
g1569
sbsS'Iw2DSceneGraphCore.cpp'
p2745
g361
(g1709
g363
Ntp2746
Rp2747
(dp2748
g1713
g1546
sg1714
(lp2749
S"'Marmalade Studio'"
p2750
ag1542
asg387
g1547
sbsS'IwResManager.h'
p2751
g361
(g1709
g363
Ntp2752
Rp2753
(dp2754
g1713
g1468
sg1714
g2257
sg387
g1477
sbsS'ostream'
p2755
g361
(g1709
g363
Ntp2756
Rp2757
(dp2758
g1713
g1721
sg1714
g1722
sg387
S'e:/7.10/s3e/h/std/c++/ostream'
p2759
sbsS'cwctype'
p2760
g361
(g1709
g363
Ntp2761
Rp2762
(dp2763
g1713
g1721
sg1714
g1722
sg387
S'e:/7.10/s3e/h/std/c++/cwctype'
p2764
sbsS'set'
p2765
g361
(g1709
g363
Ntp2766
Rp2767
(dp2768
g1713
g1721
sg1714
g1722
sg387
S'e:/7.10/s3e/h/std/c++/set'
p2769
sbsS'IwGeomSQuat.h'
p2770
g361
(g1709
g363
Ntp2771
Rp2772
(dp2773
g1713
g1392
sg1714
g1771
sg387
g1409
sbsS'locale'
p2774
g361
(g1709
g363
Ntp2775
Rp2776
(dp2777
g1713
g1721
sg1714
g1722
sg387
S'e:/7.10/s3e/h/std/c++/locale'
p2778
sbsS'cstdio'
p2779
g361
(g1709
g363
Ntp2780
Rp2781
(dp2782
g1713
g1721
sg1714
g1722
sg387
S'e:/7.10/s3e/h/std/c++/cstdio'
p2783
sbsS'cdjpeg.h'
p2784
g361
(g1709
g363
Ntp2785
Rp2786
(dp2787
g1713
g1676
sg1714
g1801
sg387
g1691
sbsS'IwList.h'
p2788
g361
(g1709
g363
Ntp2789
Rp2790
(dp2791
g1713
g1556
sg1714
g1750
sg387
g1581
sbsS'inttypes.h'
p2792
g361
(g1709
g363
Ntp2793
Rp2794
(dp2795
g1713
g1721
sg1714
g1743
sg387
S'e:/7.10/s3e/h/std/inttypes.h'
p2796
sbsS'dirent.h'
p2797
g361
(g1709
g363
Ntp2798
Rp2799
(dp2800
g1713
g1721
sg1714
g1743
sg387
S'e:/7.10/s3e/h/std/dirent.h'
p2801
sbsS'IwGeomVec3.h'
p2802
g361
(g1709
g363
Ntp2803
Rp2804
(dp2805
g1713
g1392
sg1714
g1771
sg387
g1435
sbsS'transupp.h'
p2806
g361
(g1709
g363
Ntp2807
Rp2808
(dp2809
g1713
g1676
sg1714
g1801
sg387
g1699
sbsS'IwMath.h'
p2810
g361
(g1709
g363
Ntp2811
Rp2812
(dp2813
g1713
g1556
sg1714
g1750
sg387
g1567
sbsS'IwGeomQuat.h'
p2814
g361
(g1709
g363
Ntp2815
Rp2816
(dp2817
g1713
g1392
sg1714
g1771
sg387
g1441
sbsS'glplatform.h'
p2818
g361
(g1709
g363
Ntp2819
Rp2820
(dp2821
g1713
g1721
sg1714
g2272
sg387
S'e:/7.10/s3e/h/GLES/glplatform.h'
p2822
sbsS's3e-default.mkf'
p2823
g361
(g1709
g363
Ntp2824
Rp2825
(dp2826
g1713
g1327
sg1714
(lp2827
g1323
asg387
g1325
sbsS'bitset'
p2828
g361
(g1709
g363
Ntp2829
Rp2830
(dp2831
g1713
g1721
sg1714
g1722
sg387
S'e:/7.10/s3e/h/std/c++/bitset'
p2832
sbsS'alloca.h'
p2833
g361
(g1709
g363
Ntp2834
Rp2835
(dp2836
g1713
g1721
sg1714
g1743
sg387
S'e:/7.10/s3e/h/std/alloca.h'
p2837
sbsS'IwResHandler.h'
p2838
g361
(g1709
g363
Ntp2839
Rp2840
(dp2841
g1713
g1468
sg1714
g2257
sg387
g1486
sbsS'IwResHandlerMTL.h'
p2842
g361
(g1709
g363
Ntp2843
Rp2844
(dp2845
g1713
g1492
sg1714
g1843
sg387
g1536
sbsS'IwRuntime.h'
p2846
g361
(g1709
g363
Ntp2847
Rp2848
(dp2849
g1713
g1556
sg1714
g1750
sg387
g1579
sbsS'limits'
p2850
g361
(g1709
g363
Ntp2851
Rp2852
(dp2853
g1713
g1721
sg1714
g1722
sg387
S'e:/7.10/s3e/h/std/c++/limits'
p2854
sbsS'IwGeomBBox.h'
p2855
g361
(g1709
g363
Ntp2856
Rp2857
(dp2858
g1713
g1392
sg1714
g1771
sg387
g1455
sbsS's3eContacts.h'
p2859
g361
(g1709
g363
Ntp2860
Rp2861
(dp2862
g1713
g1721
sg1714
g1737
sg387
S'e:/7.10/s3e/h/s3eContacts.h'
p2863
sbsS's3eLicense.h'
p2864
g361
(g1709
g363
Ntp2865
Rp2866
(dp2867
g1713
g1721
sg1714
g1737
sg387
S'e:/7.10/s3e/h/s3eLicense.h'
p2868
sbsS'iwgx.config.txt'
p2869
g361
(g1709
g363
Ntp2870
Rp2871
(dp2872
g1713
g1492
sg1714
g1843
sg387
g1526
sbsS'IwTextParser.h'
p2873
g361
(g1709
g363
Ntp2874
Rp2875
(dp2876
g1713
g1556
sg1714
g1750
sg387
g1595
sbsS's3eTimer.h'
p2877
g361
(g1709
g363
Ntp2878
Rp2879
(dp2880
g1713
g1721
sg1714
g1737
sg387
S'e:/7.10/s3e/h/s3eTimer.h'
p2881
sbsS'IwGeomVec.h'
p2882
g361
(g1709
g363
Ntp2883
Rp2884
(dp2885
g1713
g1392
sg1714
g1771
sg387
g1459
sbsS'IwSerialise.h'
p2886
g361
(g1709
g363
Ntp2887
Rp2888
(dp2889
g1713
g1556
sg1714
g1750
sg387
g1563
sbsS'cstdarg'
p2890
g361
(g1709
g363
Ntp2891
Rp2892
(dp2893
g1713
g1721
sg1714
g1722
sg387
S'e:/7.10/s3e/h/std/c++/cstdarg'
p2894
sbsS'gl2ext.h'
p2895
g361
(g1709
g363
Ntp2896
Rp2897
(dp2898
g1713
g1721
sg1714
g1958
sg387
S'e:/7.10/s3e/h/GLES2/gl2ext.h'
p2899
sbsS'IwChar.h'
p2900
g361
(g1709
g363
Ntp2901
Rp2902
(dp2903
g1713
g1556
sg1714
g1750
sg387
g1624
sbsS's3eSound.h'
p2904
g361
(g1709
g363
Ntp2905
Rp2906
(dp2907
g1713
g1721
sg1714
g1737
sg387
S'e:/7.10/s3e/h/s3eSound.h'
p2908
sbsS'IwOptimiseThumb.h'
p2909
g361
(g1709
g363
Ntp2910
Rp2911
(dp2912
g1713
g1556
sg1714
g1750
sg387
g1599
sbsS'exception.h'
p2913
g361
(g1709
g363
Ntp2914
Rp2915
(dp2916
g1713
g1721
sg1714
g1722
sg387
S'e:/7.10/s3e/h/std/c++/exception.h'
p2917
sbsS'iwgeom.config.txt'
p2918
g361
(g1709
g363
Ntp2919
Rp2920
(dp2921
g1713
g1392
sg1714
g1771
sg387
g1447
sbsS'gl31.h'
p2922
g361
(g1709
g363
Ntp2923
Rp2924
(dp2925
g1713
g1721
sg1714
g2018
sg387
S'e:/7.10/s3e/h/GLES3/gl31.h'
p2926
sbsS'gl.h'
p2927
g361
(g1709
g363
Ntp2928
Rp2929
(dp2930
g1713
g1721
sg1714
g2272
sg387
S'e:/7.10/s3e/h/GLES/gl.h'
p2931
sbsS'zlib.h'
p2932
g361
(g1709
g363
Ntp2933
Rp2934
(dp2935
g1713
g1664
sg1714
g2374
sg387
g1662
sbsS'temp_defines_release.h'
p2936
g361
(g1709
g363
Ntp2937
Rp2938
(dp2939
g1713
(lp2940
sg1714
(lp2941
S"'generated files'"
p2942
asg387
S'c:/Users/Daniel/Documents/Bird/build_bird_vc12/temp_defines_release.h'
p2943
sbsS'iwgl.mkf'
p2944
g361
(g1709
g363
Ntp2945
Rp2946
(dp2947
g1713
g1351
sg1714
g1731
sg387
g1349
sbsS'IwColour.h'
p2948
g361
(g1709
g363
Ntp2949
Rp2950
(dp2951
g1713
g1492
sg1714
g1843
sg387
g1524
sbsS's3eLibrary.h'
p2952
g361
(g1709
g363
Ntp2953
Rp2954
(dp2955
g1713
g1721
sg1714
g1926
sg387
S'e:/7.10/s3e/h/ext/s3eLibrary.h'
p2956
sbsS'types.h'
p2957
g361
(g1709
g363
Ntp2958
Rp2959
(dp2960
g1713
g1721
sg1714
g1857
sg387
S'e:/7.10/s3e/h/std/sys/types.h'
p2961
sbsS'ifaddrs.h'
p2962
g361
(g1709
g363
Ntp2963
Rp2964
(dp2965
g1713
g1721
sg1714
g1743
sg387
S'e:/7.10/s3e/h/std/ifaddrs.h'
p2966
sbsS'strstream'
p2967
g361
(g1709
g363
Ntp2968
Rp2969
(dp2970
g1713
g1721
sg1714
g1722
sg387
S'e:/7.10/s3e/h/std/c++/strstream'
p2971
sbsS'IwTween.cpp'
p2972
g361
(g1709
g363
Ntp2973
Rp2974
(dp2975
g1713
g1252
sg1714
g2209
sg387
g1250
sbsS'exception'
p2976
g361
(g1709
g363
Ntp2977
Rp2978
(dp2979
g1713
g1721
sg1714
g1722
sg387
S'e:/7.10/s3e/h/std/c++/exception'
p2980
sbsS's3eAmazonAds.defines.txt'
p2981
g361
(g1709
g363
Ntp2982
Rp2983
(dp2984
g1713
g1298
sg1714
g2620
sg387
g1299
sbsS'rlocks.h'
p2985
g361
(g1709
g363
Ntp2986
Rp2987
(dp2988
g1713
g1721
sg1714
g1722
sg387
S'e:/7.10/s3e/h/std/c++/rlocks.h'
p2989
sbsS'ioctl.h'
p2990
g361
(g1709
g363
Ntp2991
Rp2992
(dp2993
g1713
g1721
sg1714
g1857
sg387
S'e:/7.10/s3e/h/std/sys/ioctl.h'
p2994
sbsS'rope'
p2995
g361
(g1709
g363
Ntp2996
Rp2997
(dp2998
g1713
g1721
sg1714
g1722
sg387
S'e:/7.10/s3e/h/std/c++/rope'
p2999
sbsS'jinclude.h'
p3000
g361
(g1709
g363
Ntp3001
Rp3002
(dp3003
g1713
g1676
sg1714
g1801
sg387
g1685
sbsS'IwEvent.h'
p3004
g361
(g1709
g363
Ntp3005
Rp3006
(dp3007
g1713
g1556
sg1714
g1750
sg387
g1554
sbsS'IwOptimiseSize.h'
p3008
g361
(g1709
g363
Ntp3009
Rp3010
(dp3011
g1713
g1556
sg1714
g1750
sg387
g1644
sbsS'iwgxfont_public.defines.txt'
p3012
g361
(g1709
g363
Ntp3013
Rp3014
(dp3015
g1713
g1370
sg1714
g1715
sg387
g1373
sbsS'iconv.h'
p3016
g361
(g1709
g363
Ntp3017
Rp3018
(dp3019
g1713
g1721
sg1714
g1743
sg387
S'e:/7.10/s3e/h/std/iconv.h'
p3020
sbsS'sendfile.h'
p3021
g361
(g1709
g363
Ntp3022
Rp3023
(dp3024
g1713
g1721
sg1714
g1857
sg387
S'e:/7.10/s3e/h/std/sys/sendfile.h'
p3025
sbsS'IwGeomSphere.h'
p3026
g361
(g1709
g363
Ntp3027
Rp3028
(dp3029
g1713
g1392
sg1714
g1771
sg387
g1399
sbsS'tiniconv.mkf'
p3030
g361
(g1709
g363
Ntp3031
Rp3032
(dp3033
g1713
g1284
sg1714
g2166
sg387
g1282
sbsS'IwResManagerClass.h'
p3034
g361
(g1709
g363
Ntp3035
Rp3036
(dp3037
g1713
g1468
sg1714
g2257
sg387
g1482
sbsS'jdct.h'
p3038
g361
(g1709
g363
Ntp3039
Rp3040
(dp3041
g1713
g1676
sg1714
g1801
sg387
g1679
sbsS'cctype'
p3042
g361
(g1709
g363
Ntp3043
Rp3044
(dp3045
g1713
g1721
sg1714
g1722
sg387
S'e:/7.10/s3e/h/std/c++/cctype'
p3046
sbsS's3eConfig.h'
p3047
g361
(g1709
g363
Ntp3048
Rp3049
(dp3050
g1713
g1721
sg1714
g1737
sg387
S'e:/7.10/s3e/h/s3eConfig.h'
p3051
sbsS'IwHashString.h'
p3052
g361
(g1709
g363
Ntp3053
Rp3054
(dp3055
g1713
g1556
sg1714
g1750
sg387
g1617
sbsS'stat.h'
p3056
g361
(g1709
g363
Ntp3057
Rp3058
(dp3059
g1713
g1721
sg1714
g1857
sg387
S'e:/7.10/s3e/h/std/sys/stat.h'
p3060
sbsS'byteswap.h'
p3061
g361
(g1709
g363
Ntp3062
Rp3063
(dp3064
g1713
g1721
sg1714
g1743
sg387
S'e:/7.10/s3e/h/std/byteswap.h'
p3065
sbsS'iwresmanager.mkf'
p3066
g361
(g1709
g363
Ntp3067
Rp3068
(dp3069
g1713
g1481
sg1714
g2257
sg387
g1479
sbsS'IwUtilInitTerm.h'
p3070
g361
(g1709
g363
Ntp3071
Rp3072
(dp3073
g1713
g1556
sg1714
g1750
sg387
g1583
sbsS'pthread_1.h'
p3074
g361
(g1709
g363
Ntp3075
Rp3076
(dp3077
g1713
g1721
sg1714
g1722
sg387
S'e:/7.10/s3e/h/std/c++/pthread.h'
p3078
sbsS'IwMemBucket.h'
p3079
g361
(g1709
g363
Ntp3080
Rp3081
(dp3082
g1713
g1556
sg1714
g1750
sg387
g1575
sbsS'complex'
p3083
g361
(g1709
g363
Ntp3084
Rp3085
(dp3086
g1713
g1721
sg1714
g1722
sg387
S'e:/7.10/s3e/h/std/c++/complex'
p3087
sbsS'algorithm'
p3088
g361
(g1709
g363
Ntp3089
Rp3090
(dp3091
g1713
g1721
sg1714
g1722
sg387
S'e:/7.10/s3e/h/std/c++/algorithm'
p3092
sbsS's3e.icf'
p3093
g361
(g1709
g363
Ntp3094
Rp3095
(dp3096
g1713
g1721
sg1714
g1737
sg387
S'e:/7.10/s3e/s3e.icf'
p3097
sbsS'IwVariableBitField.h'
p3098
g361
(g1709
g363
Ntp3099
Rp3100
(dp3101
g1713
g1556
sg1714
g1750
sg387
g1650
sbsS'sem.h'
p3102
g361
(g1709
g363
Ntp3103
Rp3104
(dp3105
g1713
g1721
sg1714
g1857
sg387
S'e:/7.10/s3e/h/std/sys/sem.h'
p3106
sbsS'IwGxFontState.h'
p3107
g361
(g1709
g363
Ntp3108
Rp3109
(dp3110
g1713
g1370
sg1714
g1715
sg387
g1384
sbsS'stdio.h'
p3111
g361
(g1709
g363
Ntp3112
Rp3113
(dp3114
g1713
g1721
sg1714
g1743
sg387
S'e:/7.10/s3e/h/std/stdio.h'
p3115
sbsS'jmemsys.h'
p3116
g361
(g1709
g363
Ntp3117
Rp3118
(dp3119
g1713
g1676
sg1714
g1801
sg387
g1701
sbsS'ios'
p3120
g361
(g1709
g363
Ntp3121
Rp3122
(dp3123
g1713
g1721
sg1714
g1722
sg387
S'e:/7.10/s3e/h/std/c++/ios'
p3124
sbsS'IwTween.h'
p3125
g361
(g1709
g363
Ntp3126
Rp3127
(dp3128
g1713
g1252
sg1714
g2209
sg387
g1253
sbsS'IwGeomFVec4.h'
p3129
g361
(g1709
g363
Ntp3130
Rp3131
(dp3132
g1713
g1392
sg1714
g1771
sg387
g1445
sbsS'stack'
p3133
g361
(g1709
g363
Ntp3134
Rp3135
(dp3136
g1713
g1721
sg1714
g1722
sg387
S'e:/7.10/s3e/h/std/c++/stack'
p3137
sbsS'new.h'
p3138
g361
(g1709
g363
Ntp3139
Rp3140
(dp3141
g1713
g1721
sg1714
g1722
sg387
S'e:/7.10/s3e/h/std/c++/new.h'
p3142
sbsS's3eAmazonAds.h'
p3143
g361
(g1709
g363
Ntp3144
Rp3145
(dp3146
g1713
g1298
sg1714
g2696
sg387
g1301
sbsS's3eEMail.h'
p3147
g361
(g1709
g363
Ntp3148
Rp3149
(dp3150
g1713
g1721
sg1714
g1926
sg387
S'e:/7.10/s3e/h/ext/s3eEMail.h'
p3151
sbsS's3eVideo.h'
p3152
g361
(g1709
g363
Ntp3153
Rp3154
(dp3155
g1713
g1721
sg1714
g1737
sg387
S'e:/7.10/s3e/h/s3eVideo.h'
p3156
sbsS'pngconf.h'
p3157
g361
(g1709
g363
Ntp3158
Rp3159
(dp3160
g1713
g1264
sg1714
g2425
sg387
g1262
sbsS'pwd.h'
p3161
g361
(g1709
g363
Ntp3162
Rp3163
(dp3164
g1713
g1721
sg1714
g1743
sg387
S'e:/7.10/s3e/h/std/pwd.h'
p3165
sbsS'gl3.h'
p3166
g361
(g1709
g363
Ntp3167
Rp3168
(dp3169
g1713
g1721
sg1714
g2018
sg387
S'e:/7.10/s3e/h/GLES3/gl3.h'
p3170
sbsS'IwClip.h'
p3171
g361
(g1709
g363
Ntp3172
Rp3173
(dp3174
g1713
g1492
sg1714
g1843
sg387
g1532
sbsS'iwresmanager.config.txt'
p3175
g361
(g1709
g363
Ntp3176
Rp3177
(dp3178
g1713
g1468
sg1714
g2257
sg387
g1469
sbsS'IwGxShaderTechnique.h'
p3179
g361
(g1709
g363
Ntp3180
Rp3181
(dp3182
g1713
g1492
sg1714
g1843
sg387
g1501
sbsS'IwCore.h'
p3183
g361
(g1709
g363
Ntp3184
Rp3185
(dp3186
g1713
g1556
sg1714
g1750
sg387
g1634
sbsS'cfloat'
p3187
g361
(g1709
g363
Ntp3188
Rp3189
(dp3190
g1713
g1721
sg1714
g1722
sg387
S'e:/7.10/s3e/h/std/c++/cfloat'
p3191
sbsS'IwGeomMat2D.h'
p3192
g361
(g1709
g363
Ntp3193
Rp3194
(dp3195
g1713
g1392
sg1714
g1771
sg387
g1403
sbsS'IwAllocator.h'
p3196
g361
(g1709
g363
Ntp3197
Rp3198
(dp3199
g1713
g1556
sg1714
g1750
sg387
g1648
sbsS'IwPath.h'
p3200
g361
(g1709
g363
Ntp3201
Rp3202
(dp3203
g1713
g1556
sg1714
g1750
sg387
g1626
sbsS'iwgxfont.mkf'
p3204
g361
(g1709
g363
Ntp3205
Rp3206
(dp3207
g1713
g1379
sg1714
g1715
sg387
g1377
sbsS'IwTexture.h'
p3208
g361
(g1709
g363
Ntp3209
Rp3210
(dp3211
g1713
g1492
sg1714
g1843
sg387
g1518
sbsS'IwGeomVec.h.tpl'
p3212
g361
(g1709
g363
Ntp3213
Rp3214
(dp3215
g1713
g1392
sg1714
g1771
sg387
g1453
sbsS's3eAccelerometer.h'
p3216
g361
(g1709
g363
Ntp3217
Rp3218
(dp3219
g1713
g1721
sg1714
g1737
sg387
S'e:/7.10/s3e/h/s3eAccelerometer.h'
p3220
sbsS'setjmp.h'
p3221
g361
(g1709
g363
Ntp3222
Rp3223
(dp3224
g1713
g1721
sg1714
g1743
sg387
S'e:/7.10/s3e/h/std/setjmp.h'
p3225
sbsS'IwFile.h'
p3226
g361
(g1709
g363
Ntp3227
Rp3228
(dp3229
g1713
g1556
sg1714
g1750
sg387
g1638
sbsS'IwTextParseable.h'
p3230
g361
(g1709
g363
Ntp3231
Rp3232
(dp3233
g1713
g1556
sg1714
g1750
sg387
g1591
sbsS'istream.h'
p3234
g361
(g1709
g363
Ntp3235
Rp3236
(dp3237
g1713
g1721
sg1714
g1722
sg387
S'e:/7.10/s3e/h/std/c++/istream.h'
p3238
sbsS'stdint.h'
p3239
g361
(g1709
g363
Ntp3240
Rp3241
(dp3242
g1713
g1721
sg1714
g1743
sg387
S'e:/7.10/s3e/h/std/stdint.h'
p3243
sbsS'semaphore.h'
p3244
g361
(g1709
g363
Ntp3245
Rp3246
(dp3247
g1713
g1721
sg1714
g1743
sg387
S'e:/7.10/s3e/h/std/semaphore.h'
p3248
sbsS'ctime'
p3249
g361
(g1709
g363
Ntp3250
Rp3251
(dp3252
g1713
g1721
sg1714
g1722
sg387
S'e:/7.10/s3e/h/std/c++/ctime'
p3253
sbsS'sstream'
p3254
g361
(g1709
g363
Ntp3255
Rp3256
(dp3257
g1713
g1721
sg1714
g1722
sg387
S'e:/7.10/s3e/h/std/c++/sstream'
p3258
sbsS'IwGeomFBBox.h'
p3259
g361
(g1709
g363
Ntp3260
Rp3261
(dp3262
g1713
g1392
sg1714
g1771
sg387
g1419
sbsS'IwDebugPrim.h'
p3263
g361
(g1709
g363
Ntp3264
Rp3265
(dp3266
g1713
g1492
sg1714
g1843
sg387
g1493
sbsS'IwGxFontContainer.h'
p3267
g361
(g1709
g363
Ntp3268
Rp3269
(dp3270
g1713
g1370
sg1714
g1715
sg387
g1371
sbsS'IwGeomSVec3.h'
p3271
g361
(g1709
g363
Ntp3272
Rp3273
(dp3274
g1713
g1392
sg1714
g1771
sg387
g1393
sbsS'iw2dscenegraphcore.mkf'
p3275
g361
(g1709
g363
Ntp3276
Rp3277
(dp3278
g1713
g1551
sg1714
g2749
sg387
g1549
sbsS's3eExt.h'
p3279
g361
(g1709
g363
Ntp3280
Rp3281
(dp3282
g1713
g1721
sg1714
g1737
sg387
S'e:/7.10/s3e/h/s3eExt.h'
p3283
sbsS'IwGeomFVec3.h'
p3284
g361
(g1709
g363
Ntp3285
Rp3286
(dp3287
g1713
g1392
sg1714
g1771
sg387
g1390
sbsS'streambuf'
p3288
g361
(g1709
g363
Ntp3289
Rp3290
(dp3291
g1713
g1721
sg1714
g1722
sg387
S'e:/7.10/s3e/h/std/c++/streambuf'
p3292
sbsS's3eMetrics.h'
p3293
g361
(g1709
g363
Ntp3294
Rp3295
(dp3296
g1713
g1721
sg1714
g1926
sg387
S'e:/7.10/s3e/h/ext/s3eMetrics.h'
p3297
sbsS'Bird.cpp'
p3298
g361
(g1709
g363
Ntp3299
Rp3300
(dp3301
g1713
g1322
sg1714
g2596
sg387
g1669
sbsS'IwGxFont.h'
p3302
g361
(g1709
g363
Ntp3303
Rp3304
(dp3305
g1713
g1370
sg1714
g1715
sg387
g1386
sbsS's3eSecureStorage.h'
p3306
g361
(g1709
g363
Ntp3307
Rp3308
(dp3309
g1713
g1721
sg1714
g1737
sg387
S'e:/7.10/s3e/h/s3eSecureStorage.h'
p3310
sbsS'string.h'
p3311
g361
(g1709
g363
Ntp3312
Rp3313
(dp3314
g1713
g1721
sg1714
g1743
sg387
S'e:/7.10/s3e/h/std/string.h'
p3315
sbsS'IwResource.h'
p3316
g361
(g1709
g363
Ntp3317
Rp3318
(dp3319
g1713
g1556
sg1714
g1750
sg387
g1593
sbsS'IwGeomSVec2.h'
p3320
g361
(g1709
g363
Ntp3321
Rp3322
(dp3323
g1713
g1392
sg1714
g1771
sg387
g1407
sbsS'libjpeg.mkf'
p3324
g361
(g1709
g363
Ntp3325
Rp3326
(dp3327
g1713
g1705
sg1714
(lp3328
g1671
asg387
g1703
sbsS'IwGxDebug.h'
p3329
g361
(g1709
g363
Ntp3330
Rp3331
(dp3332
g1713
g1492
sg1714
g1843
sg387
g1516
sbsS'pthread_types.h'
p3333
g361
(g1709
g363
Ntp3334
Rp3335
(dp3336
g1713
g1721
sg1714
g1743
sg387
S'e:/7.10/s3e/h/std/pthread_types.h'
p3337
sbsS'iomanip.h'
p3338
g361
(g1709
g363
Ntp3339
Rp3340
(dp3341
g1713
g1721
sg1714
g1722
sg387
S'e:/7.10/s3e/h/std/c++/iomanip.h'
p3342
sbsS'IwKeymap.h'
p3343
g361
(g1709
g363
Ntp3344
Rp3345
(dp3346
g1713
g1556
sg1714
g1750
sg387
g1605
sbsS'IwDebug.h'
p3347
g361
(g1709
g363
Ntp3348
Rp3349
(dp3350
g1713
g1556
sg1714
g1750
sg387
g1646
sbsS's3eIOSBackgroundAudio.h'
p3351
g361
(g1709
g363
Ntp3352
Rp3353
(dp3354
g1713
g1721
sg1714
g1926
sg387
S'e:/7.10/s3e/h/ext/s3eIOSBackgroundAudio.h'
p3355
sbsS'IwGeomMenu.h'
p3356
g361
(g1709
g363
Ntp3357
Rp3358
(dp3359
g1713
g1392
sg1714
g1771
sg387
g1429
sbsS'IwDivTable.h'
p3360
g361
(g1709
g363
Ntp3361
Rp3362
(dp3363
g1713
g1556
sg1714
g1750
sg387
g1557
sbsS'ctype.h'
p3364
g361
(g1709
g363
Ntp3365
Rp3366
(dp3367
g1713
g1721
sg1714
g1743
sg387
S'e:/7.10/s3e/h/std/ctype.h'
p3368
sbsS'IwGeomMat.h'
p3369
g361
(g1709
g363
Ntp3370
Rp3371
(dp3372
g1713
g1392
sg1714
g1771
sg387
g1415
sbsS'IwResGroup.h'
p3373
g361
(g1709
g363
Ntp3374
Rp3375
(dp3376
g1713
g1468
sg1714
g2257
sg387
g1475
sbsS'signal_1.h'
p3377
g361
(g1709
g363
Ntp3378
Rp3379
(dp3380
g1713
g1721
sg1714
g1857
sg387
S'e:/7.10/s3e/h/std/sys/signal.h'
p3381
sbsS'functional'
p3382
g361
(g1709
g363
Ntp3383
Rp3384
(dp3385
g1713
g1721
sg1714
g1722
sg387
S'e:/7.10/s3e/h/std/c++/functional'
p3386
sbsS'shm.h'
p3387
g361
(g1709
g363
Ntp3388
Rp3389
(dp3390
g1713
g1721
sg1714
g1857
sg387
S'e:/7.10/s3e/h/std/sys/shm.h'
p3391
sbsS'IwManagedList.h'
p3392
g361
(g1709
g363
Ntp3393
Rp3394
(dp3395
g1713
g1556
sg1714
g1750
sg387
g1630
sbsS'prctl.h'
p3396
g361
(g1709
g363
Ntp3397
Rp3398
(dp3399
g1713
g1721
sg1714
g1857
sg387
S'e:/7.10/s3e/h/std/sys/prctl.h'
p3400
sbsS'un.h'
p3401
g361
(g1709
g363
Ntp3402
Rp3403
(dp3404
g1713
g1721
sg1714
g1857
sg387
S'e:/7.10/s3e/h/std/sys/un.h'
p3405
sbsS'temp_defines_debug.h'
p3406
g361
(g1709
g363
Ntp3407
Rp3408
(dp3409
g1713
(lp3410
sg1714
(lp3411
g2942
asg387
S'c:/Users/Daniel/Documents/Bird/build_bird_vc12/temp_defines_debug.h'
p3412
sbsS'utility'
p3413
g361
(g1709
g363
Ntp3414
Rp3415
(dp3416
g1713
g1721
sg1714
g1722
sg387
S'e:/7.10/s3e/h/std/c++/utility'
p3417
sbsS'input.h'
p3418
g361
(g1709
g363
Ntp3419
Rp3420
(dp3421
g1713
g1322
sg1714
g2596
sg387
g1320
sbsS'IwGeomLegacy.h'
p3422
g361
(g1709
g363
Ntp3423
Rp3424
(dp3425
g1713
g1392
sg1714
g1771
sg387
g1433
sbsS'IwTPage.h'
p3426
g361
(g1709
g363
Ntp3427
Rp3428
(dp3429
g1713
g1492
sg1714
g1843
sg387
g1522
sbsS'IwResSerialise.h'
p3430
g361
(g1709
g363
Ntp3431
Rp3432
(dp3433
g1713
g1468
sg1714
g2257
sg387
g1484
sbsS's3eCrypto.h'
p3434
g361
(g1709
g363
Ntp3435
Rp3436
(dp3437
g1713
g1721
sg1714
g1737
sg387
S'e:/7.10/s3e/h/s3eCrypto.h'
p3438
sbsS's3eKeyboard.h'
p3439
g361
(g1709
g363
Ntp3440
Rp3441
(dp3442
g1713
g1721
sg1714
g1737
sg387
S'e:/7.10/s3e/h/s3eKeyboard.h'
p3443
sbsS'fcntl.h'
p3444
g361
(g1709
g363
Ntp3445
Rp3446
(dp3447
g1713
g1721
sg1714
g1743
sg387
S'e:/7.10/s3e/h/std/fcntl.h'
p3448
sbsS'Iw2DSceneGraphCore.h'
p3449
g361
(g1709
g363
Ntp3450
Rp3451
(dp3452
g1713
g1546
sg1714
g2749
sg387
g1544
sbsS'memory.h'
p3453
g361
(g1709
g363
Ntp3454
Rp3455
(dp3456
g1713
g1721
sg1714
g1743
sg387
S'e:/7.10/s3e/h/std/memory.h'
p3457
sbsS'pthread.h'
p3458
g361
(g1709
g363
Ntp3459
Rp3460
(dp3461
g1713
g1721
sg1714
g1743
sg387
S'e:/7.10/s3e/h/std/pthread.h'
p3462
sbsS'IwGeomIntersect.h'
p3463
g361
(g1709
g363
Ntp3464
Rp3465
(dp3466
g1713
g1392
sg1714
g1771
sg387
g1417
sbsS'IwTextParserITX.h'
p3467
g361
(g1709
g363
Ntp3468
Rp3469
(dp3470
g1713
g1556
sg1714
g1750
sg387
g1597
sbsS'egl_1.h'
p3471
g361
(g1709
g363
Ntp3472
Rp3473
(dp3474
g1713
g1721
sg1714
g2272
sg387
S'e:/7.10/s3e/h/GLES/egl.h'
p3475
sbsS'Iw2DSceneGraph.cpp'
p3476
g361
(g1709
g363
Ntp3477
Rp3478
(dp3479
g1713
g1334
sg1714
g1966
sg387
g1340
sbsS'ostream.h'
p3480
g361
(g1709
g363
Ntp3481
Rp3482
(dp3483
g1713
g1721
sg1714
g1722
sg387
S'e:/7.10/s3e/h/std/c++/ostream.h'
p3484
sbsS'stl_user_config.h'
p3485
g361
(g1709
g363
Ntp3486
Rp3487
(dp3488
g1713
g1721
sg1714
g1722
sg387
S'e:/7.10/s3e/h/std/c++/stl_user_config.h'
p3489
sbsS'iwgx.mkf'
p3490
g361
(g1709
g363
Ntp3491
Rp3492
(dp3493
g1713
g1505
sg1714
g1843
sg387
g1503
sbsS'IwProfileMenu.h'
p3494
g361
(g1709
g363
Ntp3495
Rp3496
(dp3497
g1713
g1556
sg1714
g1750
sg387
g1619
sbsS'MarmaladeVersion.h'
p3498
g361
(g1709
g363
Ntp3499
Rp3500
(dp3501
g1713
g1721
sg1714
g1737
sg387
S'e:/7.10/s3e/h/MarmaladeVersion.h'
p3502
sbsS'gl3platform.h'
p3503
g361
(g1709
g363
Ntp3504
Rp3505
(dp3506
g1713
g1721
sg1714
g2018
sg387
S'e:/7.10/s3e/h/GLES3/gl3platform.h'
p3507
sbsS'ios.h'
p3508
g361
(g1709
g363
Ntp3509
Rp3510
(dp3511
g1713
g1721
sg1714
g1722
sg387
S'e:/7.10/s3e/h/std/c++/ios.h'
p3512
sbsS'IwImageHelper.h'
p3513
g361
(g1709
g363
Ntp3514
Rp3515
(dp3516
g1713
g1556
sg1714
g1750
sg387
g1607
sbsS'hash_set'
p3517
g361
(g1709
g363
Ntp3518
Rp3519
(dp3520
g1713
g1721
sg1714
g1722
sg387
S'e:/7.10/s3e/h/std/c++/hash_set'
p3521
sbsS'IwGeomFQuat.h'
p3522
g361
(g1709
g363
Ntp3523
Rp3524
(dp3525
g1713
g1392
sg1714
g1771
sg387
g1437
sbsS'jmorecfg.h'
p3526
g361
(g1709
g363
Ntp3527
Rp3528
(dp3529
g1713
g1676
sg1714
g1801
sg387
g1687
sbsS'eglplatform.h'
p3530
g361
(g1709
g363
Ntp3531
Rp3532
(dp3533
g1713
g1721
sg1714
g2050
sg387
S'e:/7.10/s3e/h/EGL/eglplatform.h'
p3534
sbsS'cmath'
p3535
g361
(g1709
g363
Ntp3536
Rp3537
(dp3538
g1713
g1721
sg1714
g1722
sg387
S'e:/7.10/s3e/h/std/c++/cmath'
p3539
sbsS'math_gcc.h'
p3540
g361
(g1709
g363
Ntp3541
Rp3542
(dp3543
g1713
g1721
sg1714
g1743
sg387
S'e:/7.10/s3e/h/std/math_gcc.h'
p3544
sbsS's3eMemory.h'
p3545
g361
(g1709
g363
Ntp3546
Rp3547
(dp3548
g1713
g1721
sg1714
g1737
sg387
S'e:/7.10/s3e/h/s3eMemory.h'
p3549
sbsS'strings.h'
p3550
g361
(g1709
g363
Ntp3551
Rp3552
(dp3553
g1713
g1721
sg1714
g1743
sg387
S'e:/7.10/s3e/h/std/strings.h'
p3554
sbsS's3eFile.h'
p3555
g361
(g1709
g363
Ntp3556
Rp3557
(dp3558
g1713
g1721
sg1714
g1737
sg387
S'e:/7.10/s3e/h/s3eFile.h'
p3559
sbsS'IwGxTypes.h'
p3560
g361
(g1709
g363
Ntp3561
Rp3562
(dp3563
g1713
g1492
sg1714
g1843
sg387
g1499
sbsS'cerrno'
p3564
g361
(g1709
g363
Ntp3565
Rp3566
(dp3567
g1713
g1721
sg1714
g1722
sg387
S'e:/7.10/s3e/h/std/c++/cerrno'
p3568
sbsS'resource.h'
p3569
g361
(g1709
g363
Ntp3570
Rp3571
(dp3572
g1713
g1721
sg1714
g1857
sg387
S'e:/7.10/s3e/h/std/sys/resource.h'
p3573
sbsS'clocale'
p3574
g361
(g1709
g363
Ntp3575
Rp3576
(dp3577
g1713
g1721
sg1714
g1722
sg387
S'e:/7.10/s3e/h/std/c++/clocale'
p3578
sbsS'pvrtextool.mkf'
p3579
g361
(g1709
g363
Ntp3580
Rp3581
(dp3582
g1713
g1319
sg1714
g2304
sg387
g1317
sbsS'csetjmp'
p3583
g361
(g1709
g363
Ntp3584
Rp3585
(dp3586
g1713
g1721
sg1714
g1722
sg387
S'e:/7.10/s3e/h/std/c++/csetjmp'
p3587
sbsS'netdb.h'
p3588
g361
(g1709
g363
Ntp3589
Rp3590
(dp3591
g1713
g1721
sg1714
g1743
sg387
S'e:/7.10/s3e/h/std/netdb.h'
p3592
sbsS's3eAndroidJNI.h'
p3593
g361
(g1709
g363
Ntp3594
Rp3595
(dp3596
g1713
g1721
sg1714
g1926
sg387
S'e:/7.10/s3e/h/ext/s3eAndroidJNI.h'
p3597
sbsS'stdexcept'
p3598
g361
(g1709
g363
Ntp3599
Rp3600
(dp3601
g1713
g1721
sg1714
g1722
sg387
S'e:/7.10/s3e/h/std/c++/stdexcept'
p3602
sbsS'math.h'
p3603
g361
(g1709
g363
Ntp3604
Rp3605
(dp3606
g1713
g1721
sg1714
g1743
sg387
S'e:/7.10/s3e/h/std/math.h'
p3607
sbsS'stdbool.h'
p3608
g361
(g1709
g363
Ntp3609
Rp3610
(dp3611
g1713
g1721
sg1714
g1743
sg387
S'e:/7.10/s3e/h/std/stdbool.h'
p3612
sbsS'uio.h'
p3613
g361
(g1709
g363
Ntp3614
Rp3615
(dp3616
g1713
g1721
sg1714
g1857
sg387
S'e:/7.10/s3e/h/std/sys/uio.h'
p3617
sbsS'IwUncopyable.h'
p3618
g361
(g1709
g363
Ntp3619
Rp3620
(dp3621
g1713
g1556
sg1714
g1750
sg387
g1615
sbssS'juice_build_type'
p3622
g4
sS'tests'
p3623
(lp3624
sS'project_name'
p3625
g369
sS'root_file'
p3626
g143
sS'current_root'
p3627
S'c:/Users/Daniel/Documents/Bird'
p3628
sS'dependencies'
p3629
(lp3630
sS'include_paths'
p3631
(lp3632
S'e:/7.10/extensions/s3eamazonads/h'
p3633
aS'e:/7.10/modules/iwutil/h'
p3634
aS'e:/7.10/modules/third_party/libjpeg/h'
p3635
aS'e:/7.10/modules/third_party/zlib/h'
p3636
aS'e:/7.10/modules/third_party/libpng/h'
p3637
aS'e:/7.10/modules/iw2dscenegraphcore/h'
p3638
aS'e:/7.10/modules/iw2dscenegraph/h'
p3639
aS'e:/7.10/modules/iw2d/h'
p3640
aS'e:/7.10/modules/iwgx/h'
p3641
aS'e:/7.10/modules/iwgl/h'
p3642
aS'e:/7.10/modules/iwgeom/h'
p3643
aS'e:/7.10/modules/iwresmanager/h'
p3644
aS'e:/7.10/extensions/pvrtextool/h'
p3645
aS'e:/7.10/modules/iwgxfont/h'
p3646
aS'e:/7.10/modules/third_party/tiniconv/source'
p3647
aS'e:/7.10/modules/iwtween/h'
p3648
aS'e:/7.10/s3e/h'
p3649
aS'e:/7.10/s3e/h/ext'
p3650
aS'e:/7.10/s3e/h/std'
p3651
aS'e:/7.10/s3e/h/std/c++'
p3652
aS'e:/7.10/s3e/h/ext_legacy'
p3653
aS'e:/7.10/s3e/h/legacy'
p3654
asS'weak_frameworks'
p3655
(lp3656
sS'extprojects'
p3657
(dp3658
sg692
(dp3659
g686
(lp3660
(g97
S'.'
p3661
I0
tp3662
assS'macro_types'
p3663
(dp3664
g615
I0
sg617
I1
sg618
I0
sg619
I0
sg620
I0
sg621
I0
sg623
I0
sg624
I0
sg625
I0
sg626
I0
sg627
I0
sg628
I0
sg630
I0
sg631
I0
sg632
I0
sg633
I0
sg634
I0
sg635
I0
sg636
I0
sg637
I0
sg638
I0
sg640
I0
sg641
I0
sg642
I0
sg643
I0
sg644
I0
sg645
I0
sg646
I0
sg647
I1
sg648
I0
sg649
I0
sg650
I0
sg651
I0
sg652
I01
sg653
I1
sg654
I0
sg655
I0
sg656
I0
sg657
I0
sg658
I0
sg659
I0
sg660
I0
ssS'commands'
p3665
(lp3666
sg694
(g1241
S'VC12'
p3667
S'X86ARMAARCH64'
p3668
tp3669
sS'build_libs'
p3670
(dp3671
sg696
g0
sS'frameworks'
p3672
(lp3673
sS'environ'
p3674
(dp3675
S'NACL_ROOT'
p3676
S'e:\\7.10/tools/gcc/x86_64/nacl_windows'
p3677
ssS'target_name_debug'
p3678
g369
sS'builders'
p3679
(dp3680
g686
(dp3681
S'.S'
p3682
(dp3683
S'gcc_aarch64'
p3684
(lp3685
S'.obj'
p3686
aS'echo AARCH64 Assembling(GCC) ${SOURCE}...'
p3687
aS'e:/7.10/s3e\\gcc\\win32\\aarch64\\bin\\aarch64-none-elf-gcc -c -o ${TARGET} ${SOURCE}'
p3688
asS'rvct'
p3689
(lp3690
g3686
aS'echo ARM Assembling(RVCT) ${SOURCE}...'
p3691
aS'e:/7.10/s3e\\rvct\\bin\\armasm -o ${TARGET} ${SOURCE}'
p3692
asg490
(lp3693
g3686
aS'echo ARM Assembling(GCC) ${SOURCE}...'
p3694
aS'e:/7.10/s3e\\gcc\\win32\\arm\\bin\\arm-none-eabi-gcc -c -o ${TARGET} ${SOURCE}'
p3695
asS'ppu'
p3696
(lp3697
S'.a'
p3698
aS'echo PPU Assembling(SNC) ${SOURCE}...'
p3699
aS'e:/7.10/s3e\\rvct\\bin\\armasm -o ${TARGET} ${SOURCE}'
p3700
assS'.s'
p3701
g3683
sS'.vp'
p3702
(lp3703
NaS'"E:/7.10/s3e/python/python.exe" "e:/7.10/modules/iwgx/tools/compile_shaders.py" ${SOURCE}'
p3704
asssS'extproject_names'
p3705
(lp3706
sbtp3707
.