	.arch armv8-a+fp+simd
	.file	"IwTween.cpp"
	.text
.Ltext0:
	.cfi_sections	.debug_frame
	.section	.text._ZnwmPv,"axG",%progbits,_ZnwmPv,comdat
	.align	2
	.weak	_ZnwmPv
	.hidden	_ZnwmPv
	.type	_ZnwmPv, %function
_ZnwmPv:
.LFB164:
	.file 1 "e:/7.10/s3e/h/std/c++/new.h"
	.loc 1 52 0
	.cfi_startproc
	sub	sp, sp, #16
.LCFI0:
	.cfi_def_cfa_offset 16
	str	x0, [sp, 8]
	str	x1, [sp]
	.loc 1 52 0
	ldr	x0, [sp]
	add	sp, sp, 16
.LCFI1:
	.cfi_def_cfa_offset 0
	ret
	.cfi_endproc
.LFE164:
	.size	_ZnwmPv, .-_ZnwmPv
	.section	.text._ZN7IwTween6CTween9ValueTypeC2ENS_4TypeEPvi,"axG",%progbits,_ZN7IwTween6CTween9ValueTypeC5ENS_4TypeEPvi,comdat
	.align	2
	.weak	_ZN7IwTween6CTween9ValueTypeC2ENS_4TypeEPvi
	.hidden	_ZN7IwTween6CTween9ValueTypeC2ENS_4TypeEPvi
	.type	_ZN7IwTween6CTween9ValueTypeC2ENS_4TypeEPvi, %function
_ZN7IwTween6CTween9ValueTypeC2ENS_4TypeEPvi:
.LFB446:
	.file 2 "e:/7.10/modules/iwtween/h/IwTween.h"
	.loc 2 396 0
	.cfi_startproc
	sub	sp, sp, #32
.LCFI2:
	.cfi_def_cfa_offset 32
	str	x0, [sp, 24]
	str	w1, [sp, 20]
	str	x2, [sp, 8]
	str	w3, [sp, 16]
.LBB2:
	.loc 2 398 0
	ldr	x0, [sp, 24]
	ldr	w1, [sp, 20]
	str	w1, [x0]
	.loc 2 399 0
	ldr	x0, [sp, 24]
	ldr	x1, [sp, 8]
	str	x1, [x0, 8]
	.loc 2 400 0
	ldr	x0, [sp, 24]
	ldr	w1, [sp, 16]
	str	w1, [x0, 16]
.LBE2:
	.loc 2 401 0
	add	sp, sp, 32
.LCFI3:
	.cfi_def_cfa_offset 0
	ret
	.cfi_endproc
.LFE446:
	.size	_ZN7IwTween6CTween9ValueTypeC2ENS_4TypeEPvi, .-_ZN7IwTween6CTween9ValueTypeC2ENS_4TypeEPvi
	.weak	_ZN7IwTween6CTween9ValueTypeC1ENS_4TypeEPvi
	.hidden	_ZN7IwTween6CTween9ValueTypeC1ENS_4TypeEPvi
_ZN7IwTween6CTween9ValueTypeC1ENS_4TypeEPvi = _ZN7IwTween6CTween9ValueTypeC2ENS_4TypeEPvi
	.section	.text._ZN7IwTween6CTweenC2ENS0_4SpecE,"axG",%progbits,_ZN7IwTween6CTweenC5ENS0_4SpecE,comdat
	.align	2
	.weak	_ZN7IwTween6CTweenC2ENS0_4SpecE
	.hidden	_ZN7IwTween6CTweenC2ENS0_4SpecE
	.type	_ZN7IwTween6CTweenC2ENS0_4SpecE, %function
_ZN7IwTween6CTweenC2ENS0_4SpecE:
.LFB449:
	.loc 2 428 0
	.cfi_startproc
	stp	x19, x20, [sp, -64]!
.LCFI4:
	.cfi_def_cfa_offset 64
	.cfi_offset 19, -64
	.cfi_offset 20, -56
	str	x30, [sp, 16]
	.cfi_offset 30, -48
	str	x0, [sp, 40]
	mov	x20, x1
.LBB3:
	.loc 2 428 0
	ldr	x0, [sp, 40]
	bl	_ZN7IwTween6CTween4SpecC2Ev
	ldr	x0, [sp, 40]
	add	x19, x0, 64
	add	x0, sp, 56
	bl	_ZN4_STL9allocatorIN7IwTween6CTween9ValueTypeEEC1Ev
	add	x0, sp, 56
	mov	x1, x0
	mov	x0, x19
	bl	_ZN4_STL6vectorIN7IwTween6CTween9ValueTypeENS_9allocatorIS3_EEEC1ERKS5_
	add	x0, sp, 56
	bl	_ZN4_STL9allocatorIN7IwTween6CTween9ValueTypeEED1Ev
	ldr	x0, [sp, 40]
	mov	x1, x20
	ldp	x2, x3, [x1]
	stp	x2, x3, [x0]
	ldp	x2, x3, [x1, 16]
	stp	x2, x3, [x0, 16]
	ldp	x1, x2, [x1, 32]
	stp	x1, x2, [x0, 32]
.LBE3:
	ldr	x30, [sp, 16]
	.cfi_restore 30
	ldp	x19, x20, [sp], 64
	.cfi_restore 20
	.cfi_restore 19
	ret
	.cfi_endproc
.LFE449:
	.size	_ZN7IwTween6CTweenC2ENS0_4SpecE, .-_ZN7IwTween6CTweenC2ENS0_4SpecE
	.weak	_ZN7IwTween6CTweenC1ENS0_4SpecE
	.hidden	_ZN7IwTween6CTweenC1ENS0_4SpecE
_ZN7IwTween6CTweenC1ENS0_4SpecE = _ZN7IwTween6CTweenC2ENS0_4SpecE
	.section	.text._ZN7IwTween6CTweenD2Ev,"axG",%progbits,_ZN7IwTween6CTweenD5Ev,comdat
	.align	2
	.weak	_ZN7IwTween6CTweenD2Ev
	.hidden	_ZN7IwTween6CTweenD2Ev
	.type	_ZN7IwTween6CTweenD2Ev, %function
_ZN7IwTween6CTweenD2Ev:
.LFB452:
	.loc 2 430 0
	.cfi_startproc
	str	x30, [sp, -32]!
.LCFI5:
	.cfi_def_cfa_offset 32
	.cfi_offset 30, -32
	str	x0, [sp, 24]
.LBB4:
	.loc 2 430 0
	ldr	x0, [sp, 24]
	add	x0, x0, 64
	bl	_ZN4_STL6vectorIN7IwTween6CTween9ValueTypeENS_9allocatorIS3_EEED1Ev
.LBE4:
	ldr	x30, [sp], 32
	.cfi_restore 30
	ret
	.cfi_endproc
.LFE452:
	.size	_ZN7IwTween6CTweenD2Ev, .-_ZN7IwTween6CTweenD2Ev
	.weak	_ZN7IwTween6CTweenD1Ev
	.hidden	_ZN7IwTween6CTweenD1Ev
_ZN7IwTween6CTweenD1Ev = _ZN7IwTween6CTweenD2Ev
	.section	.text._ZL11IwDebugExitv,"ax",%progbits
	.align	2
	.type	_ZL11IwDebugExitv, %function
_ZL11IwDebugExitv:
.LFB467:
	.file 3 "e:/7.10/modules/iwutil/h/IwDebug.h"
	.loc 3 346 0
	.cfi_startproc
	str	x30, [sp, -16]!
.LCFI6:
	.cfi_def_cfa_offset 16
	.cfi_offset 30, -16
	.loc 3 347 0
	bl	abort
	.cfi_endproc
.LFE467:
	.size	_ZL11IwDebugExitv, .-_ZL11IwDebugExitv
	.section	.text._ZN7IwTween4Ease6linearEff,"ax",%progbits
	.align	2
	.global	_ZN7IwTween4Ease6linearEff
	.hidden	_ZN7IwTween4Ease6linearEff
	.type	_ZN7IwTween4Ease6linearEff, %function
_ZN7IwTween4Ease6linearEff:
.LFB481:
	.file 4 "e:/7.10/modules/iwtween/source/IwTween.cpp"
	.loc 4 35 0
	.cfi_startproc
	sub	sp, sp, #16
.LCFI7:
	.cfi_def_cfa_offset 16
	str	s0, [sp, 12]
	str	s1, [sp, 8]
	.loc 4 36 0
	ldr	w0, [sp, 12]
	.loc 4 37 0
	fmov	s0, w0
	add	sp, sp, 16
.LCFI8:
	.cfi_def_cfa_offset 0
	ret
	.cfi_endproc
.LFE481:
	.size	_ZN7IwTween4Ease6linearEff, .-_ZN7IwTween4Ease6linearEff
	.section	.text._ZN7IwTween4Ease3oneEff,"ax",%progbits
	.align	2
	.global	_ZN7IwTween4Ease3oneEff
	.hidden	_ZN7IwTween4Ease3oneEff
	.type	_ZN7IwTween4Ease3oneEff, %function
_ZN7IwTween4Ease3oneEff:
.LFB482:
	.loc 4 39 0
	.cfi_startproc
	sub	sp, sp, #16
.LCFI9:
	.cfi_def_cfa_offset 16
	str	s0, [sp, 12]
	str	s1, [sp, 8]
	.loc 4 40 0
	ldr	w0, .LC0
	.loc 4 41 0
	fmov	s0, w0
	add	sp, sp, 16
.LCFI10:
	.cfi_def_cfa_offset 0
	ret
	.cfi_endproc
.LFE482:
	.size	_ZN7IwTween4Ease3oneEff, .-_ZN7IwTween4Ease3oneEff
	.align	2
.LC0:
	.word	1065353216
	.section	.text._ZN7IwTween4Ease4zeroEff,"ax",%progbits
	.align	2
	.global	_ZN7IwTween4Ease4zeroEff
	.hidden	_ZN7IwTween4Ease4zeroEff
	.type	_ZN7IwTween4Ease4zeroEff, %function
_ZN7IwTween4Ease4zeroEff:
.LFB483:
	.loc 4 43 0
	.cfi_startproc
	sub	sp, sp, #16
.LCFI11:
	.cfi_def_cfa_offset 16
	str	s0, [sp, 12]
	str	s1, [sp, 8]
	.loc 4 44 0
	fmov	s0, wzr
	fmov	w0, s0
	.loc 4 45 0
	fmov	s0, w0
	add	sp, sp, 16
.LCFI12:
	.cfi_def_cfa_offset 0
	ret
	.cfi_endproc
.LFE483:
	.size	_ZN7IwTween4Ease4zeroEff, .-_ZN7IwTween4Ease4zeroEff
	.section	.text._ZN7IwTween4Ease5powInEff,"ax",%progbits
	.align	2
	.global	_ZN7IwTween4Ease5powInEff
	.hidden	_ZN7IwTween4Ease5powInEff
	.type	_ZN7IwTween4Ease5powInEff, %function
_ZN7IwTween4Ease5powInEff:
.LFB484:
	.loc 4 47 0
	.cfi_startproc
	str	x30, [sp, -48]!
.LCFI13:
	.cfi_def_cfa_offset 48
	.cfi_offset 30, -48
	str	s0, [sp, 28]
	str	s1, [sp, 24]
.LBB5:
	.loc 4 48 0
	ldr	w0, [sp, 24]
	fmov	s0, wzr
	fmov	s1, w0
	fcmp	s1, s0
	bne	.L15
	.loc 4 48 0 is_stmt 0 discriminator 1
	ldr	w0, .LC1
	str	w0, [sp, 24]
.L15:
	.loc 4 49 0 is_stmt 1
	ldr	s1, [sp, 24]
	ldr	s0, [sp, 28]
	bl	powf
	str	s0, [sp, 44]
	.loc 4 50 0
	ldr	w0, [sp, 44]
.LBE5:
	.loc 4 51 0
	fmov	s0, w0
	ldr	x30, [sp], 48
	.cfi_restore 30
	ret
	.cfi_endproc
.LFE484:
	.size	_ZN7IwTween4Ease5powInEff, .-_ZN7IwTween4Ease5powInEff
	.align	2
.LC1:
	.word	1073741824
	.section	.text._ZN7IwTween4Ease6powOutEff,"ax",%progbits
	.align	2
	.global	_ZN7IwTween4Ease6powOutEff
	.hidden	_ZN7IwTween4Ease6powOutEff
	.type	_ZN7IwTween4Ease6powOutEff, %function
_ZN7IwTween4Ease6powOutEff:
.LFB485:
	.loc 4 53 0
	.cfi_startproc
	str	x30, [sp, -48]!
.LCFI14:
	.cfi_def_cfa_offset 48
	.cfi_offset 30, -48
	str	s0, [sp, 28]
	str	s1, [sp, 24]
.LBB6:
	.loc 4 54 0
	ldr	w0, [sp, 24]
	fmov	s0, wzr
	fmov	s1, w0
	fcmp	s1, s0
	bne	.L18
	.loc 4 54 0 is_stmt 0 discriminator 1
	ldr	w0, .LC2
	str	w0, [sp, 24]
.L18:
	.loc 4 55 0 is_stmt 1
	ldr	w1, .LC3
	ldr	w0, [sp, 24]
	fmov	s0, w1
	fmov	s1, w0
	fdiv	s0, s0, s1
	fmov	s1, s0
	ldr	s0, [sp, 28]
	bl	powf
	str	s0, [sp, 44]
	.loc 4 56 0
	ldr	w0, [sp, 44]
.LBE6:
	.loc 4 57 0
	fmov	s0, w0
	ldr	x30, [sp], 48
	.cfi_restore 30
	ret
	.cfi_endproc
.LFE485:
	.size	_ZN7IwTween4Ease6powOutEff, .-_ZN7IwTween4Ease6powOutEff
	.align	2
.LC2:
	.word	1073741824
	.align	2
.LC3:
	.word	1065353216
	.section	.text._ZN7IwTween4Ease8powInOutEff,"ax",%progbits
	.align	2
	.global	_ZN7IwTween4Ease8powInOutEff
	.hidden	_ZN7IwTween4Ease8powInOutEff
	.type	_ZN7IwTween4Ease8powInOutEff, %function
_ZN7IwTween4Ease8powInOutEff:
.LFB486:
	.loc 4 59 0
	.cfi_startproc
	stp	x19, x30, [sp, -48]!
.LCFI15:
	.cfi_def_cfa_offset 48
	.cfi_offset 19, -48
	.cfi_offset 30, -40
	str	s0, [sp, 28]
	str	s1, [sp, 24]
.LBB7:
	.loc 4 60 0
	ldr	w0, [sp, 24]
	fmov	s0, wzr
	fmov	s1, w0
	fcmp	s1, s0
	bne	.L21
	.loc 4 60 0 is_stmt 0 discriminator 1
	ldr	w0, .LC4
	str	w0, [sp, 24]
.L21:
	.loc 4 61 0 is_stmt 1
	mov	w0, 1
	str	w0, [sp, 44]
	.loc 4 62 0
	ldr	w0, [sp, 24]
	fmov	s0, w0
	fcvtzs	w0, s0
	str	w0, [sp, 40]
	.loc 4 63 0
	ldr	w0, [sp, 40]
	and	w0, w0, 1
	cmp	w0, wzr
	bne	.L22
	.loc 4 64 0
	mov	w0, -1
	str	w0, [sp, 44]
.L22:
	.loc 4 66 0
	ldr	w0, [sp, 28]
	fmov	s0, w0
	fadd	s0, s0, s0
	fmov	w0, s0
	str	w0, [sp, 28]
	.loc 4 67 0
	ldr	w1, [sp, 28]
	ldr	w0, .LC5
	fmov	s0, w1
	fmov	s1, w0
	fcmpe	s0, s1
	bpl	.L27
	.loc 4 68 0
	ldr	s1, [sp, 24]
	ldr	s0, [sp, 28]
	bl	powf
	ldr	w0, .LC6
	fmov	s1, w0
	fmul	s0, s0, s1
	fmov	w0, s0
	b	.L25
.L27:
	.loc 4 70 0
	ldr	w0, [sp, 44]
	scvtf	s0, w0
	fmov	w1, s0
	ldr	w0, .LC6
	fmov	s0, w1
	fmov	s1, w0
	fmul	s0, s0, s1
	fmov	w19, s0
	ldr	w1, [sp, 28]
	ldr	w0, .LC4
	fmov	s0, w1
	fmov	s1, w0
	fsub	s0, s0, s1
	ldr	s1, [sp, 24]
	bl	powf
	ldr	w0, [sp, 44]
	add	w0, w0, w0
	scvtf	s1, w0
	fmov	w0, s1
	fmov	s1, w0
	fadd	s0, s0, s1
	fmov	w0, s0
	fmov	s0, w19
	fmov	s1, w0
	fmul	s0, s0, s1
	fmov	w0, s0
.L25:
.LBE7:
	.loc 4 71 0
	fmov	s0, w0
	ldp	x19, x30, [sp], 48
	.cfi_restore 30
	.cfi_restore 19
	ret
	.cfi_endproc
.LFE486:
	.size	_ZN7IwTween4Ease8powInOutEff, .-_ZN7IwTween4Ease8powInOutEff
	.align	2
.LC4:
	.word	1073741824
	.align	2
.LC5:
	.word	1065353216
	.align	2
.LC6:
	.word	1056964608
	.section	.text._ZN7IwTween4Ease5expInEff,"ax",%progbits
	.align	2
	.global	_ZN7IwTween4Ease5expInEff
	.hidden	_ZN7IwTween4Ease5expInEff
	.type	_ZN7IwTween4Ease5expInEff, %function
_ZN7IwTween4Ease5expInEff:
.LFB487:
	.loc 4 73 0
	.cfi_startproc
	str	x30, [sp, -32]!
.LCFI16:
	.cfi_def_cfa_offset 32
	.cfi_offset 30, -32
	str	s0, [sp, 28]
	str	s1, [sp, 24]
	.loc 4 74 0
	ldr	w0, [sp, 24]
	fmov	s0, wzr
	fmov	s1, w0
	fcmp	s1, s0
	bne	.L29
	.loc 4 74 0 is_stmt 0 discriminator 1
	ldr	w0, .LC8
	str	w0, [sp, 24]
.L29:
	.loc 4 75 0 is_stmt 1
	ldr	w0, [sp, 28]
	fmov	s0, wzr
	fmov	s1, w0
	fcmp	s1, s0
	beq	.L30
	.loc 4 75 0 is_stmt 0 discriminator 1
	ldr	w1, [sp, 28]
	ldr	w0, .LC9
	fmov	s0, w1
	fmov	s1, w0
	fsub	s0, s0, s1
	fmov	w1, s0
	ldr	w0, .LC10
	fmov	s0, w1
	fmov	s1, w0
	fmul	s0, s0, s1
	fmov	s1, s0
	ldr	s0, [sp, 24]
	bl	powf
	ldr	w0, .LC7
	fmov	s1, w0
	fsub	s0, s0, s1
	b	.L31
.L30:
	.loc 4 75 0 discriminator 2
	fmov	s0, wzr
.L31:
	.loc 4 75 0 discriminator 4
	fmov	w0, s0
	.loc 4 76 0 is_stmt 1 discriminator 4
	fmov	s0, w0
	ldr	x30, [sp], 32
	.cfi_restore 30
	ret
	.cfi_endproc
.LFE487:
	.size	_ZN7IwTween4Ease5expInEff, .-_ZN7IwTween4Ease5expInEff
	.align	2
.LC7:
	.word	981668463
	.align	2
.LC8:
	.word	1073741824
	.align	2
.LC9:
	.word	1065353216
	.align	2
.LC10:
	.word	1092616192
	.section	.text._ZN7IwTween4Ease6expOutEff,"ax",%progbits
	.align	2
	.global	_ZN7IwTween4Ease6expOutEff
	.hidden	_ZN7IwTween4Ease6expOutEff
	.type	_ZN7IwTween4Ease6expOutEff, %function
_ZN7IwTween4Ease6expOutEff:
.LFB488:
	.loc 4 78 0
	.cfi_startproc
	str	x30, [sp, -32]!
.LCFI17:
	.cfi_def_cfa_offset 32
	.cfi_offset 30, -32
	str	s0, [sp, 28]
	str	s1, [sp, 24]
	.loc 4 79 0
	ldr	w0, [sp, 24]
	fmov	s0, wzr
	fmov	s1, w0
	fcmp	s1, s0
	bne	.L34
	.loc 4 79 0 is_stmt 0 discriminator 1
	ldr	w0, .LC11
	str	w0, [sp, 24]
.L34:
	.loc 4 80 0 is_stmt 1
	ldr	w1, [sp, 28]
	ldr	w0, .LC12
	fmov	s0, w1
	fmov	s1, w0
	fcmp	s0, s1
	beq	.L35
	.loc 4 80 0 is_stmt 0 discriminator 1
	ldr	w1, [sp, 28]
	ldr	w0, .LC13
	fmov	s0, w1
	fmov	s1, w0
	fmul	s0, s0, s1
	fmov	s1, s0
	ldr	s0, [sp, 24]
	bl	powf
	ldr	w0, .LC12
	fmov	s1, w0
	fsub	s0, s1, s0
	fmov	w0, s0
	b	.L36
.L35:
	.loc 4 80 0 discriminator 2
	ldr	w0, .LC12
.L36:
	.loc 4 81 0 is_stmt 1 discriminator 4
	fmov	s0, w0
	ldr	x30, [sp], 32
	.cfi_restore 30
	ret
	.cfi_endproc
.LFE488:
	.size	_ZN7IwTween4Ease6expOutEff, .-_ZN7IwTween4Ease6expOutEff
	.align	2
.LC11:
	.word	1073741824
	.align	2
.LC12:
	.word	1065353216
	.align	2
.LC13:
	.word	-1054867456
	.section	.text._ZN7IwTween4Ease8expInOutEff,"ax",%progbits
	.align	2
	.global	_ZN7IwTween4Ease8expInOutEff
	.hidden	_ZN7IwTween4Ease8expInOutEff
	.type	_ZN7IwTween4Ease8expInOutEff, %function
_ZN7IwTween4Ease8expInOutEff:
.LFB489:
	.loc 4 83 0
	.cfi_startproc
	str	x30, [sp, -32]!
.LCFI18:
	.cfi_def_cfa_offset 32
	.cfi_offset 30, -32
	str	s0, [sp, 28]
	str	s1, [sp, 24]
	.loc 4 84 0
	ldr	w0, [sp, 24]
	fmov	s0, wzr
	fmov	s1, w0
	fcmp	s1, s0
	bne	.L39
	.loc 4 84 0 is_stmt 0 discriminator 1
	ldr	w0, .LC14
	str	w0, [sp, 24]
.L39:
	.loc 4 85 0 is_stmt 1
	ldr	w0, [sp, 28]
	fmov	s0, w0
	fadd	s0, s0, s0
	fmov	w0, s0
	str	w0, [sp, 28]
	.loc 4 86 0
	ldr	w1, [sp, 28]
	ldr	w0, .LC15
	fmov	s0, w1
	fmov	s1, w0
	fcmpe	s0, s1
	bpl	.L44
	.loc 4 87 0
	ldr	w1, [sp, 28]
	ldr	w0, .LC15
	fmov	s0, w1
	fmov	s1, w0
	fsub	s0, s0, s1
	fmov	w1, s0
	ldr	w0, .LC16
	fmov	s0, w1
	fmov	s1, w0
	fmul	s0, s0, s1
	fmov	s1, s0
	ldr	s0, [sp, 24]
	bl	powf
	ldr	w0, .LC17
	fmov	s1, w0
	fmul	s0, s0, s1
	fmov	w0, s0
	b	.L42
.L44:
	.loc 4 89 0
	ldr	w1, [sp, 28]
	ldr	w0, .LC15
	fmov	s0, w1
	fmov	s1, w0
	fsub	s0, s0, s1
	fmov	w1, s0
	ldr	w0, .LC18
	fmov	s0, w1
	fmov	s1, w0
	fmul	s0, s0, s1
	fmov	s1, s0
	fmov	s0, 2.0e+0
	bl	powf
	ldr	w0, .LC14
	fmov	s1, w0
	fsub	s0, s1, s0
	fmov	w1, s0
	ldr	w0, .LC17
	fmov	s0, w1
	fmov	s1, w0
	fmul	s0, s0, s1
	fmov	w0, s0
.L42:
	.loc 4 90 0
	fmov	s0, w0
	ldr	x30, [sp], 32
	.cfi_restore 30
	ret
	.cfi_endproc
.LFE489:
	.size	_ZN7IwTween4Ease8expInOutEff, .-_ZN7IwTween4Ease8expInOutEff
	.align	2
.LC14:
	.word	1073741824
	.align	2
.LC15:
	.word	1065353216
	.align	2
.LC16:
	.word	1092616192
	.align	2
.LC17:
	.word	1056964608
	.align	2
.LC18:
	.word	-1054867456
	.section	.text._ZN7IwTween4Ease6sineInEff,"ax",%progbits
	.align	2
	.global	_ZN7IwTween4Ease6sineInEff
	.hidden	_ZN7IwTween4Ease6sineInEff
	.type	_ZN7IwTween4Ease6sineInEff, %function
_ZN7IwTween4Ease6sineInEff:
.LFB490:
	.loc 4 92 0
	.cfi_startproc
	str	x30, [sp, -48]!
.LCFI19:
	.cfi_def_cfa_offset 48
	.cfi_offset 30, -48
	str	s0, [sp, 28]
	str	s1, [sp, 24]
.LBB8:
	.loc 4 93 0
	ldr	w0, [sp, 24]
	fmov	s0, wzr
	fmov	s1, w0
	fcmp	s1, s0
	bne	.L46
	.loc 4 93 0 is_stmt 0 discriminator 1
	ldr	w0, .LC20
	str	w0, [sp, 24]
.L46:
	.loc 4 94 0 is_stmt 1
	ldr	w1, [sp, 28]
	ldr	w0, .LC19
	fmov	s0, w1
	fmov	s1, w0
	fmul	s0, s0, s1
	bl	cosf
	ldr	w0, .LC20
	fmov	s1, w0
	fsub	s0, s1, s0
	fmov	w0, s0
	str	w0, [sp, 44]
	.loc 4 95 0
	ldr	w1, [sp, 24]
	ldr	w0, .LC20
	fmov	s0, w1
	fmov	s1, w0
	fcmp	s0, s1
	beq	.L47
	.loc 4 96 0
	ldr	s1, [sp, 24]
	ldr	s0, [sp, 44]
	bl	powf
	str	s0, [sp, 44]
.L47:
	.loc 4 97 0
	ldr	w0, [sp, 44]
.LBE8:
	.loc 4 98 0
	fmov	s0, w0
	ldr	x30, [sp], 48
	.cfi_restore 30
	ret
	.cfi_endproc
.LFE490:
	.size	_ZN7IwTween4Ease6sineInEff, .-_ZN7IwTween4Ease6sineInEff
	.align	2
.LC19:
	.word	1070141403
	.align	2
.LC20:
	.word	1065353216
	.section	.text._ZN7IwTween4Ease7sineOutEff,"ax",%progbits
	.align	2
	.global	_ZN7IwTween4Ease7sineOutEff
	.hidden	_ZN7IwTween4Ease7sineOutEff
	.type	_ZN7IwTween4Ease7sineOutEff, %function
_ZN7IwTween4Ease7sineOutEff:
.LFB491:
	.loc 4 100 0
	.cfi_startproc
	str	x30, [sp, -48]!
.LCFI20:
	.cfi_def_cfa_offset 48
	.cfi_offset 30, -48
	str	s0, [sp, 28]
	str	s1, [sp, 24]
.LBB9:
	.loc 4 101 0
	ldr	w0, [sp, 24]
	fmov	s0, wzr
	fmov	s1, w0
	fcmp	s1, s0
	bne	.L50
	.loc 4 101 0 is_stmt 0 discriminator 1
	ldr	w0, .LC22
	str	w0, [sp, 24]
.L50:
	.loc 4 102 0 is_stmt 1
	ldr	w1, [sp, 28]
	ldr	w0, .LC21
	fmov	s0, w1
	fmov	s1, w0
	fmul	s0, s0, s1
	bl	sinf
	str	s0, [sp, 44]
	.loc 4 103 0
	ldr	w1, [sp, 24]
	ldr	w0, .LC22
	fmov	s0, w1
	fmov	s1, w0
	fcmp	s0, s1
	beq	.L51
	.loc 4 104 0
	ldr	s1, [sp, 24]
	ldr	s0, [sp, 44]
	bl	powf
	str	s0, [sp, 44]
.L51:
	.loc 4 105 0
	ldr	w0, [sp, 44]
.LBE9:
	.loc 4 106 0
	fmov	s0, w0
	ldr	x30, [sp], 48
	.cfi_restore 30
	ret
	.cfi_endproc
.LFE491:
	.size	_ZN7IwTween4Ease7sineOutEff, .-_ZN7IwTween4Ease7sineOutEff
	.align	2
.LC21:
	.word	1070141403
	.align	2
.LC22:
	.word	1065353216
	.section	.text._ZN7IwTween4Ease9sineInOutEff,"ax",%progbits
	.align	2
	.global	_ZN7IwTween4Ease9sineInOutEff
	.hidden	_ZN7IwTween4Ease9sineInOutEff
	.type	_ZN7IwTween4Ease9sineInOutEff, %function
_ZN7IwTween4Ease9sineInOutEff:
.LFB492:
	.loc 4 108 0
	.cfi_startproc
	str	x30, [sp, -48]!
.LCFI21:
	.cfi_def_cfa_offset 48
	.cfi_offset 30, -48
	str	s0, [sp, 28]
	str	s1, [sp, 24]
.LBB10:
	.loc 4 109 0
	ldr	w0, [sp, 24]
	fmov	s0, wzr
	fmov	s1, w0
	fcmp	s1, s0
	bne	.L54
	.loc 4 109 0 is_stmt 0 discriminator 1
	ldr	w0, .LC24
	str	w0, [sp, 24]
.L54:
	.loc 4 110 0 is_stmt 1
	ldr	w1, [sp, 28]
	ldr	w0, .LC23
	fmov	s0, w1
	fmov	s1, w0
	fmul	s0, s0, s1
	bl	cosf
	ldr	w0, .LC24
	fmov	s1, w0
	fsub	s0, s0, s1
	fmov	w1, s0
	ldr	w0, .LC25
	fmov	s0, w1
	fmov	s1, w0
	fmul	s0, s0, s1
	fmov	w0, s0
	str	w0, [sp, 44]
	.loc 4 111 0
	ldr	w1, [sp, 24]
	ldr	w0, .LC24
	fmov	s0, w1
	fmov	s1, w0
	fcmp	s0, s1
	beq	.L55
	.loc 4 112 0
	ldr	s1, [sp, 24]
	ldr	s0, [sp, 44]
	bl	powf
	str	s0, [sp, 44]
.L55:
	.loc 4 113 0
	ldr	w0, [sp, 44]
.LBE10:
	.loc 4 114 0
	fmov	s0, w0
	ldr	x30, [sp], 48
	.cfi_restore 30
	ret
	.cfi_endproc
.LFE492:
	.size	_ZN7IwTween4Ease9sineInOutEff, .-_ZN7IwTween4Ease9sineInOutEff
	.align	2
.LC23:
	.word	1078530011
	.align	2
.LC24:
	.word	1065353216
	.align	2
.LC25:
	.word	-1090519040
	.section	.text._ZN7IwTween4Ease9elasticInEff,"ax",%progbits
	.align	2
	.global	_ZN7IwTween4Ease9elasticInEff
	.hidden	_ZN7IwTween4Ease9elasticInEff
	.type	_ZN7IwTween4Ease9elasticInEff, %function
_ZN7IwTween4Ease9elasticInEff:
.LFB493:
	.loc 4 116 0
	.cfi_startproc
	stp	x19, x30, [sp, -48]!
.LCFI22:
	.cfi_def_cfa_offset 48
	.cfi_offset 19, -48
	.cfi_offset 30, -40
	str	s0, [sp, 28]
	str	s1, [sp, 24]
.LBB11:
	.loc 4 117 0
	ldr	w0, [sp, 24]
	fmov	s0, wzr
	fmov	s1, w0
	fcmp	s1, s0
	bne	.L58
	.loc 4 117 0 is_stmt 0 discriminator 1
	ldr	w0, .LC26
	str	w0, [sp, 24]
.L58:
.LBB12:
	.loc 4 118 0 is_stmt 1
	ldr	w0, [sp, 28]
	fmov	s0, wzr
	fmov	s1, w0
	fcmp	s1, s0
	beq	.L59
	.loc 4 118 0 is_stmt 0 discriminator 1
	ldr	w1, [sp, 28]
	ldr	w0, .LC28
	fmov	s0, w1
	fmov	s1, w0
	fcmp	s0, s1
	bne	.L60
.L59:
	.loc 4 119 0 is_stmt 1
	ldr	w0, [sp, 28]
	b	.L61
.L60:
.LBB13:
	.loc 4 122 0
	ldr	w1, [sp, 24]
	ldr	w0, .LC29
	fmov	s0, w1
	fmov	s1, w0
	fdiv	s0, s0, s1
	fmov	w0, s0
	str	w0, [sp, 44]
	.loc 4 123 0
	ldr	w1, [sp, 28]
	ldr	w0, .LC28
	fmov	s0, w1
	fmov	s1, w0
	fsub	s0, s0, s1
	fmov	w0, s0
	str	w0, [sp, 28]
	.loc 4 124 0
	ldr	w1, [sp, 28]
	ldr	w0, .LC30
	fmov	s0, w1
	fmov	s1, w0
	fmul	s0, s0, s1
	fmov	s1, s0
	fmov	s0, 2.0e+0
	bl	powf
	fneg	s0, s0
	fmov	w19, s0
	ldr	w1, [sp, 28]
	ldr	w0, [sp, 44]
	fmov	s0, w1
	fmov	s1, w0
	fsub	s0, s0, s1
	fmov	w1, s0
	ldr	w0, .LC27
	fmov	s0, w1
	fmov	s1, w0
	fmul	s0, s0, s1
	fmov	w0, s0
	fmov	s0, w0
	fadd	s0, s0, s0
	fmov	w1, s0
	ldr	w0, [sp, 24]
	fmov	s0, w1
	fmov	s1, w0
	fdiv	s0, s0, s1
	bl	sinf
	fmov	s1, w19
	fmul	s0, s1, s0
	fmov	w0, s0
.L61:
.LBE13:
.LBE12:
.LBE11:
	.loc 4 126 0
	fmov	s0, w0
	ldp	x19, x30, [sp], 48
	.cfi_restore 30
	.cfi_restore 19
	ret
	.cfi_endproc
.LFE493:
	.size	_ZN7IwTween4Ease9elasticInEff, .-_ZN7IwTween4Ease9elasticInEff
	.align	2
.LC26:
	.word	1086918619
	.align	2
.LC27:
	.word	1078530011
	.align	2
.LC28:
	.word	1065353216
	.align	2
.LC29:
	.word	1082130432
	.align	2
.LC30:
	.word	1092616192
	.section	.text._ZN7IwTween4Ease10elasticOutEff,"ax",%progbits
	.align	2
	.global	_ZN7IwTween4Ease10elasticOutEff
	.hidden	_ZN7IwTween4Ease10elasticOutEff
	.type	_ZN7IwTween4Ease10elasticOutEff, %function
_ZN7IwTween4Ease10elasticOutEff:
.LFB494:
	.loc 4 128 0
	.cfi_startproc
	str	x30, [sp, -48]!
.LCFI23:
	.cfi_def_cfa_offset 48
	.cfi_offset 30, -48
	str	d8, [sp, 8]
	.cfi_offset 72, -40
	str	s0, [sp, 28]
	str	s1, [sp, 24]
.LBB14:
	.loc 4 129 0
	ldr	w0, [sp, 24]
	fmov	s0, wzr
	fmov	s1, w0
	fcmp	s1, s0
	bne	.L63
	.loc 4 129 0 is_stmt 0 discriminator 1
	ldr	w0, .LC31
	str	w0, [sp, 24]
.L63:
.LBB15:
	.loc 4 130 0 is_stmt 1
	ldr	w0, [sp, 28]
	fmov	s0, wzr
	fmov	s1, w0
	fcmp	s1, s0
	beq	.L64
	.loc 4 130 0 is_stmt 0 discriminator 1
	ldr	w1, [sp, 28]
	ldr	w0, .LC33
	fmov	s0, w1
	fmov	s1, w0
	fcmp	s0, s1
	bne	.L65
.L64:
	.loc 4 131 0 is_stmt 1
	ldr	w0, [sp, 28]
	b	.L66
.L65:
.LBB16:
	.loc 4 134 0
	ldr	w1, [sp, 24]
	ldr	w0, .LC34
	fmov	s0, w1
	fmov	s1, w0
	fdiv	s0, s0, s1
	fmov	w0, s0
	str	w0, [sp, 44]
	.loc 4 135 0
	ldr	w1, [sp, 28]
	ldr	w0, .LC35
	fmov	s0, w1
	fmov	s1, w0
	fmul	s0, s0, s1
	fmov	s1, s0
	fmov	s0, 2.0e+0
	bl	powf
	fmov	s8, s0
	ldr	w1, [sp, 28]
	ldr	w0, [sp, 44]
	fmov	s0, w1
	fmov	s1, w0
	fsub	s0, s0, s1
	fmov	w1, s0
	ldr	w0, .LC32
	fmov	s0, w1
	fmov	s1, w0
	fmul	s0, s0, s1
	fmov	w0, s0
	fmov	s0, w0
	fadd	s0, s0, s0
	fmov	w1, s0
	ldr	w0, [sp, 24]
	fmov	s0, w1
	fmov	s1, w0
	fdiv	s0, s0, s1
	bl	sinf
	fmul	s0, s8, s0
	fmov	w1, s0
	ldr	w0, .LC33
	fmov	s0, w1
	fmov	s1, w0
	fadd	s0, s0, s1
	fmov	w0, s0
.L66:
.LBE16:
.LBE15:
.LBE14:
	.loc 4 137 0
	fmov	s0, w0
	ldr	d8, [sp, 8]
	.cfi_restore 72
	ldr	x30, [sp], 48
	.cfi_restore 30
	ret
	.cfi_endproc
.LFE494:
	.size	_ZN7IwTween4Ease10elasticOutEff, .-_ZN7IwTween4Ease10elasticOutEff
	.align	2
.LC31:
	.word	1086918619
	.align	2
.LC32:
	.word	1078530011
	.align	2
.LC33:
	.word	1065353216
	.align	2
.LC34:
	.word	1082130432
	.align	2
.LC35:
	.word	-1054867456
	.section	.text._ZN7IwTween4Ease12elasticInOutEff,"ax",%progbits
	.align	2
	.global	_ZN7IwTween4Ease12elasticInOutEff
	.hidden	_ZN7IwTween4Ease12elasticInOutEff
	.type	_ZN7IwTween4Ease12elasticInOutEff, %function
_ZN7IwTween4Ease12elasticInOutEff:
.LFB495:
	.loc 4 139 0
	.cfi_startproc
	stp	x19, x30, [sp, -64]!
.LCFI24:
	.cfi_def_cfa_offset 64
	.cfi_offset 19, -64
	.cfi_offset 30, -56
	str	d8, [sp, 16]
	.cfi_offset 72, -48
	str	s0, [sp, 44]
	str	s1, [sp, 40]
.LBB17:
	.loc 4 140 0
	ldr	w0, [sp, 40]
	fmov	s0, wzr
	fmov	s1, w0
	fcmp	s1, s0
	bne	.L68
	.loc 4 140 0 is_stmt 0 discriminator 1
	ldr	w0, .LC36
	str	w0, [sp, 40]
.L68:
.LBB18:
	.loc 4 141 0 is_stmt 1
	ldr	w0, [sp, 44]
	fmov	s0, wzr
	fmov	s1, w0
	fcmp	s1, s0
	beq	.L69
	.loc 4 141 0 is_stmt 0 discriminator 1
	ldr	w1, [sp, 44]
	ldr	w0, .LC39
	fmov	s0, w1
	fmov	s1, w0
	fcmp	s0, s1
	bne	.L70
.L69:
	.loc 4 142 0 is_stmt 1
	ldr	w0, [sp, 44]
	b	.L71
.L70:
.LBB19:
	.loc 4 145 0
	ldr	w0, [sp, 44]
	fmov	s0, w0
	fadd	s0, s0, s0
	fmov	w0, s0
	str	w0, [sp, 44]
	.loc 4 146 0
	ldr	w0, [sp, 40]
	fmov	s0, wzr
	fmov	s1, w0
	fcmp	s1, s0
	bne	.L72
	.loc 4 147 0
	ldr	w0, .LC37
	str	w0, [sp, 40]
.L72:
	.loc 4 149 0
	ldr	w1, [sp, 40]
	ldr	w0, .LC40
	fmov	s0, w1
	fmov	s1, w0
	fdiv	s0, s0, s1
	fmov	w0, s0
	str	w0, [sp, 60]
	.loc 4 150 0
	ldr	w1, [sp, 44]
	ldr	w0, .LC39
	fmov	s0, w1
	fmov	s1, w0
	fsub	s0, s0, s1
	fmov	w0, s0
	str	w0, [sp, 44]
	.loc 4 151 0
	ldr	w0, [sp, 44]
	fmov	s0, wzr
	fmov	s1, w0
	fcmpe	s1, s0
	bpl	.L76
	.loc 4 152 0
	ldr	w1, [sp, 44]
	ldr	w0, .LC41
	fmov	s0, w1
	fmov	s1, w0
	fmul	s0, s0, s1
	fmov	s1, s0
	fmov	s0, 2.0e+0
	bl	powf
	ldr	w0, .LC42
	fmov	s1, w0
	fmul	s0, s0, s1
	fmov	w19, s0
	ldr	w1, [sp, 44]
	ldr	w0, [sp, 60]
	fmov	s0, w1
	fmov	s1, w0
	fsub	s0, s0, s1
	fmov	w1, s0
	ldr	w0, .LC38
	fmov	s0, w1
	fmov	s1, w0
	fmul	s0, s0, s1
	fmov	w0, s0
	fmov	s0, w0
	fadd	s0, s0, s0
	fmov	w1, s0
	ldr	w0, [sp, 40]
	fmov	s0, w1
	fmov	s1, w0
	fdiv	s0, s0, s1
	bl	sinf
	fmov	s1, w19
	fmul	s0, s1, s0
	fmov	w0, s0
	b	.L71
.L76:
	.loc 4 154 0
	ldr	w1, [sp, 44]
	ldr	w0, .LC43
	fmov	s0, w1
	fmov	s1, w0
	fmul	s0, s0, s1
	fmov	s1, s0
	fmov	s0, 2.0e+0
	bl	powf
	fmov	s8, s0
	ldr	w1, [sp, 44]
	ldr	w0, [sp, 60]
	fmov	s0, w1
	fmov	s1, w0
	fsub	s0, s0, s1
	fmov	w1, s0
	ldr	w0, .LC38
	fmov	s0, w1
	fmov	s1, w0
	fmul	s0, s0, s1
	fmov	w0, s0
	fmov	s0, w0
	fadd	s0, s0, s0
	fmov	w1, s0
	ldr	w0, [sp, 40]
	fmov	s0, w1
	fmov	s1, w0
	fdiv	s0, s0, s1
	bl	sinf
	fmul	s0, s8, s0
	fmov	w1, s0
	ldr	w0, .LC44
	fmov	s0, w1
	fmov	s1, w0
	fmul	s0, s0, s1
	fmov	w1, s0
	ldr	w0, .LC39
	fmov	s0, w1
	fmov	s1, w0
	fadd	s0, s0, s1
	fmov	w0, s0
.L71:
.LBE19:
.LBE18:
.LBE17:
	.loc 4 156 0
	fmov	s0, w0
	ldr	d8, [sp, 16]
	.cfi_restore 72
	ldp	x19, x30, [sp], 64
	.cfi_restore 30
	.cfi_restore 19
	ret
	.cfi_endproc
.LFE495:
	.size	_ZN7IwTween4Ease12elasticInOutEff, .-_ZN7IwTween4Ease12elasticInOutEff
	.align	2
.LC36:
	.word	1086918619
	.align	2
.LC37:
	.word	1055286887
	.align	2
.LC38:
	.word	1078530011
	.align	2
.LC39:
	.word	1065353216
	.align	2
.LC40:
	.word	1082130432
	.align	2
.LC41:
	.word	1092616192
	.align	2
.LC42:
	.word	-1090519040
	.align	2
.LC43:
	.word	-1054867456
	.align	2
.LC44:
	.word	1056964608
	.section	.text._ZN7IwTween4Ease11_bounceTimeEf,"ax",%progbits
	.align	2
	.global	_ZN7IwTween4Ease11_bounceTimeEf
	.hidden	_ZN7IwTween4Ease11_bounceTimeEf
	.type	_ZN7IwTween4Ease11_bounceTimeEf, %function
_ZN7IwTween4Ease11_bounceTimeEf:
.LFB496:
	.loc 4 158 0
	.cfi_startproc
	sub	sp, sp, #16
.LCFI25:
	.cfi_def_cfa_offset 16
	str	s0, [sp, 12]
	.loc 4 159 0
	ldr	w0, [sp, 12]
	fmov	s0, w0
	fcvt	d0, s0
	fmov	x1, d0
	ldr	x0, .LC45
	fmov	d0, x1
	fmov	d1, x0
	fcmpe	d0, d1
	bpl	.L88
	.loc 4 161 0
	ldr	w1, [sp, 12]
	ldr	w0, .LC46
	fmov	s0, w1
	fmov	s1, w0
	fmul	s0, s0, s1
	fmov	w1, s0
	ldr	w0, [sp, 12]
	fmov	s0, w1
	fmov	s1, w0
	fmul	s0, s0, s1
	fmov	w0, s0
	b	.L80
.L88:
	.loc 4 163 0
	ldr	w0, [sp, 12]
	fmov	s0, w0
	fcvt	d0, s0
	fmov	x1, d0
	ldr	x0, .LC47
	fmov	d0, x1
	fmov	d1, x0
	fcmpe	d0, d1
	bpl	.L89
	.loc 4 165 0
	ldr	w1, [sp, 12]
	ldr	w0, .LC48
	fmov	s0, w1
	fmov	s1, w0
	fsub	s0, s0, s1
	fmov	w0, s0
	str	w0, [sp, 12]
	.loc 4 166 0
	ldr	w1, [sp, 12]
	ldr	w0, .LC46
	fmov	s0, w1
	fmov	s1, w0
	fmul	s0, s0, s1
	fmov	w1, s0
	ldr	w0, [sp, 12]
	fmov	s0, w1
	fmov	s1, w0
	fmul	s0, s0, s1
	fmov	w1, s0
	ldr	w0, .LC53
	fmov	s0, w1
	fmov	s1, w0
	fadd	s0, s0, s1
	fmov	w0, s0
	b	.L80
.L89:
	.loc 4 168 0
	ldr	w0, [sp, 12]
	fmov	s0, w0
	fcvt	d0, s0
	fmov	x1, d0
	ldr	x0, .LC49
	fmov	d0, x1
	fmov	d1, x0
	fcmpe	d0, d1
	bpl	.L90
	.loc 4 170 0
	ldr	w1, [sp, 12]
	ldr	w0, .LC50
	fmov	s0, w1
	fmov	s1, w0
	fsub	s0, s0, s1
	fmov	w0, s0
	str	w0, [sp, 12]
	.loc 4 171 0
	ldr	w1, [sp, 12]
	ldr	w0, .LC46
	fmov	s0, w1
	fmov	s1, w0
	fmul	s0, s0, s1
	fmov	w1, s0
	ldr	w0, [sp, 12]
	fmov	s0, w1
	fmov	s1, w0
	fmul	s0, s0, s1
	fmov	w1, s0
	ldr	w0, .LC54
	fmov	s0, w1
	fmov	s1, w0
	fadd	s0, s0, s1
	fmov	w0, s0
	b	.L80
.L90:
	.loc 4 173 0
	ldr	w1, [sp, 12]
	ldr	w0, .LC51
	fmov	s0, w1
	fmov	s1, w0
	fsub	s0, s0, s1
	fmov	w0, s0
	str	w0, [sp, 12]
	.loc 4 174 0
	ldr	w1, [sp, 12]
	ldr	w0, .LC46
	fmov	s0, w1
	fmov	s1, w0
	fmul	s0, s0, s1
	fmov	w1, s0
	ldr	w0, [sp, 12]
	fmov	s0, w1
	fmov	s1, w0
	fmul	s0, s0, s1
	fmov	w1, s0
	ldr	w0, .LC52
	fmov	s0, w1
	fmov	s1, w0
	fadd	s0, s0, s1
	fmov	w0, s0
.L80:
	.loc 4 175 0
	fmov	s0, w0
	add	sp, sp, 16
.LCFI26:
	.cfi_def_cfa_offset 0
	ret
	.cfi_endproc
.LFE496:
	.size	_ZN7IwTween4Ease11_bounceTimeEf, .-_ZN7IwTween4Ease11_bounceTimeEf
	.align	3
.LC45:
	.word	1952257862
	.word	1071072721
	.align	2
.LC46:
	.word	1089601536
	.align	3
.LC47:
	.word	1952257862
	.word	1072121297
	.align	2
.LC48:
	.word	1057727209
	.align	3
.LC49:
	.word	-780903145
	.word	1072502597
	.align	2
.LC50:
	.word	1062302813
	.align	2
.LC51:
	.word	1064590615
	.align	2
.LC52:
	.word	1065091072
	.align	2
.LC53:
	.word	1061158912
	.align	2
.LC54:
	.word	1064304640
	.section	.text._ZN7IwTween4Ease8bounceInEff,"ax",%progbits
	.align	2
	.global	_ZN7IwTween4Ease8bounceInEff
	.hidden	_ZN7IwTween4Ease8bounceInEff
	.type	_ZN7IwTween4Ease8bounceInEff, %function
_ZN7IwTween4Ease8bounceInEff:
.LFB497:
	.loc 4 177 0
	.cfi_startproc
	str	x30, [sp, -32]!
.LCFI27:
	.cfi_def_cfa_offset 32
	.cfi_offset 30, -32
	str	s0, [sp, 28]
	str	s1, [sp, 24]
	.loc 4 178 0
	ldr	w0, [sp, 24]
	fmov	s0, wzr
	fmov	s1, w0
	fcmp	s1, s0
	bne	.L92
	.loc 4 178 0 is_stmt 0 discriminator 1
	ldr	w0, .LC55
	str	w0, [sp, 24]
.L92:
	.loc 4 179 0 is_stmt 1
	ldr	w1, .LC55
	ldr	w0, [sp, 28]
	fmov	s0, w1
	fmov	s1, w0
	fsub	s0, s0, s1
	bl	_ZN7IwTween4Ease11_bounceTimeEf
	ldr	w0, .LC55
	fmov	s1, w0
	fsub	s0, s1, s0
	fmov	w0, s0
	.loc 4 180 0
	fmov	s0, w0
	ldr	x30, [sp], 32
	.cfi_restore 30
	ret
	.cfi_endproc
.LFE497:
	.size	_ZN7IwTween4Ease8bounceInEff, .-_ZN7IwTween4Ease8bounceInEff
	.align	2
.LC55:
	.word	1065353216
	.section	.text._ZN7IwTween4Ease9bounceOutEff,"ax",%progbits
	.align	2
	.global	_ZN7IwTween4Ease9bounceOutEff
	.hidden	_ZN7IwTween4Ease9bounceOutEff
	.type	_ZN7IwTween4Ease9bounceOutEff, %function
_ZN7IwTween4Ease9bounceOutEff:
.LFB498:
	.loc 4 182 0
	.cfi_startproc
	str	x30, [sp, -32]!
.LCFI28:
	.cfi_def_cfa_offset 32
	.cfi_offset 30, -32
	str	s0, [sp, 28]
	str	s1, [sp, 24]
	.loc 4 183 0
	ldr	w0, [sp, 24]
	fmov	s0, wzr
	fmov	s1, w0
	fcmp	s1, s0
	bne	.L95
	.loc 4 183 0 is_stmt 0 discriminator 1
	ldr	w0, .LC56
	str	w0, [sp, 24]
.L95:
	.loc 4 184 0 is_stmt 1
	ldr	w1, .LC56
	ldr	w0, [sp, 28]
	fmov	s0, w1
	fmov	s1, w0
	fsub	s0, s0, s1
	bl	_ZN7IwTween4Ease11_bounceTimeEf
	fmov	w0, s0
	.loc 4 185 0
	fmov	s0, w0
	ldr	x30, [sp], 32
	.cfi_restore 30
	ret
	.cfi_endproc
.LFE498:
	.size	_ZN7IwTween4Ease9bounceOutEff, .-_ZN7IwTween4Ease9bounceOutEff
	.align	2
.LC56:
	.word	1065353216
	.section	.text._ZN7IwTween4Ease11bounceInOutEff,"ax",%progbits
	.align	2
	.global	_ZN7IwTween4Ease11bounceInOutEff
	.hidden	_ZN7IwTween4Ease11bounceInOutEff
	.type	_ZN7IwTween4Ease11bounceInOutEff, %function
_ZN7IwTween4Ease11bounceInOutEff:
.LFB499:
	.loc 4 187 0
	.cfi_startproc
	str	x30, [sp, -32]!
.LCFI29:
	.cfi_def_cfa_offset 32
	.cfi_offset 30, -32
	str	s0, [sp, 28]
	str	s1, [sp, 24]
	.loc 4 188 0
	ldr	w0, [sp, 24]
	fmov	s0, wzr
	fmov	s1, w0
	fcmp	s1, s0
	bne	.L98
	.loc 4 188 0 is_stmt 0 discriminator 1
	ldr	w0, .LC57
	str	w0, [sp, 24]
.L98:
	.loc 4 189 0 is_stmt 1
	ldr	w1, [sp, 28]
	ldr	w0, .LC58
	fmov	s0, w1
	fmov	s1, w0
	fcmpe	s0, s1
	bpl	.L103
	.loc 4 191 0
	ldr	w0, [sp, 28]
	fmov	s0, w0
	fadd	s0, s0, s0
	fmov	w0, s0
	str	w0, [sp, 28]
	.loc 4 192 0
	ldr	w1, .LC57
	ldr	w0, [sp, 28]
	fmov	s0, w1
	fmov	s1, w0
	fsub	s0, s0, s1
	bl	_ZN7IwTween4Ease11_bounceTimeEf
	ldr	w0, .LC57
	fmov	s1, w0
	fsub	s0, s1, s0
	fmov	w1, s0
	ldr	w0, .LC58
	fmov	s0, w1
	fmov	s1, w0
	fmul	s0, s0, s1
	fmov	w0, s0
	b	.L101
.L103:
	.loc 4 195 0
	ldr	w0, [sp, 28]
	fmov	s0, w0
	fadd	s0, s0, s0
	fmov	w1, s0
	ldr	w0, .LC57
	fmov	s0, w1
	fmov	s1, w0
	fsub	s0, s0, s1
	bl	_ZN7IwTween4Ease11_bounceTimeEf
	ldr	w0, .LC58
	fmov	s1, w0
	fmul	s0, s0, s1
	fmov	w1, s0
	ldr	w0, .LC58
	fmov	s0, w1
	fmov	s1, w0
	fadd	s0, s0, s1
	fmov	w0, s0
.L101:
	.loc 4 196 0
	fmov	s0, w0
	ldr	x30, [sp], 32
	.cfi_restore 30
	ret
	.cfi_endproc
.LFE499:
	.size	_ZN7IwTween4Ease11bounceInOutEff, .-_ZN7IwTween4Ease11bounceInOutEff
	.align	2
.LC57:
	.word	1065353216
	.align	2
.LC58:
	.word	1056964608
	.section	.text._ZN7IwTween4Ease6backInEff,"ax",%progbits
	.align	2
	.global	_ZN7IwTween4Ease6backInEff
	.hidden	_ZN7IwTween4Ease6backInEff
	.type	_ZN7IwTween4Ease6backInEff, %function
_ZN7IwTween4Ease6backInEff:
.LFB500:
	.loc 4 198 0
	.cfi_startproc
	sub	sp, sp, #32
.LCFI30:
	.cfi_def_cfa_offset 32
	str	s0, [sp, 12]
	str	s1, [sp, 8]
.LBB20:
	.loc 4 199 0
	ldr	w0, [sp, 8]
	fmov	s0, wzr
	fmov	s1, w0
	fcmp	s1, s0
	bne	.L105
	.loc 4 199 0 is_stmt 0 discriminator 1
	ldr	w0, .LC60
	str	w0, [sp, 8]
.L105:
	.loc 4 200 0 is_stmt 1
	ldr	w0, .LC59
	str	w0, [sp, 28]
	.loc 4 201 0
	ldr	w1, [sp, 12]
	ldr	w0, [sp, 12]
	fmov	s0, w1
	fmov	s1, w0
	fmul	s0, s0, s1
	fmov	w1, s0
	ldr	w2, [sp, 28]
	ldr	w0, .LC60
	fmov	s0, w2
	fmov	s1, w0
	fadd	s0, s0, s1
	fmov	w2, s0
	ldr	w0, [sp, 12]
	fmov	s0, w2
	fmov	s1, w0
	fmul	s0, s0, s1
	fmov	w2, s0
	ldr	w0, [sp, 28]
	fmov	s0, w2
	fmov	s1, w0
	fsub	s0, s0, s1
	fmov	w0, s0
	fmov	s0, w1
	fmov	s1, w0
	fmul	s0, s0, s1
	fmov	w0, s0
.LBE20:
	.loc 4 202 0
	fmov	s0, w0
	add	sp, sp, 32
.LCFI31:
	.cfi_def_cfa_offset 0
	ret
	.cfi_endproc
.LFE500:
	.size	_ZN7IwTween4Ease6backInEff, .-_ZN7IwTween4Ease6backInEff
	.align	2
.LC59:
	.word	1071238496
	.align	2
.LC60:
	.word	1065353216
	.section	.text._ZN7IwTween4Ease7backOutEff,"ax",%progbits
	.align	2
	.global	_ZN7IwTween4Ease7backOutEff
	.hidden	_ZN7IwTween4Ease7backOutEff
	.type	_ZN7IwTween4Ease7backOutEff, %function
_ZN7IwTween4Ease7backOutEff:
.LFB501:
	.loc 4 204 0
	.cfi_startproc
	sub	sp, sp, #32
.LCFI32:
	.cfi_def_cfa_offset 32
	str	s0, [sp, 12]
	str	s1, [sp, 8]
.LBB21:
	.loc 4 205 0
	ldr	w0, [sp, 8]
	fmov	s0, wzr
	fmov	s1, w0
	fcmp	s1, s0
	bne	.L108
	.loc 4 205 0 is_stmt 0 discriminator 1
	ldr	w0, .LC62
	str	w0, [sp, 8]
.L108:
	.loc 4 206 0 is_stmt 1
	ldr	w0, .LC61
	str	w0, [sp, 28]
	.loc 4 207 0
	ldr	w1, [sp, 12]
	ldr	w0, .LC62
	fmov	s0, w1
	fmov	s1, w0
	fsub	s0, s0, s1
	fmov	w0, s0
	str	w0, [sp, 12]
	.loc 4 208 0
	ldr	w1, [sp, 12]
	ldr	w0, [sp, 12]
	fmov	s0, w1
	fmov	s1, w0
	fmul	s0, s0, s1
	fmov	w1, s0
	ldr	w2, [sp, 28]
	ldr	w0, .LC62
	fmov	s0, w2
	fmov	s1, w0
	fadd	s0, s0, s1
	fmov	w2, s0
	ldr	w0, [sp, 12]
	fmov	s0, w2
	fmov	s1, w0
	fmul	s0, s0, s1
	fmov	w2, s0
	ldr	w0, [sp, 28]
	fmov	s0, w2
	fmov	s1, w0
	fadd	s0, s0, s1
	fmov	w0, s0
	fmov	s0, w1
	fmov	s1, w0
	fmul	s0, s0, s1
	fmov	w1, s0
	ldr	w0, .LC62
	fmov	s0, w1
	fmov	s1, w0
	fadd	s0, s0, s1
	fmov	w0, s0
.LBE21:
	.loc 4 209 0
	fmov	s0, w0
	add	sp, sp, 32
.LCFI33:
	.cfi_def_cfa_offset 0
	ret
	.cfi_endproc
.LFE501:
	.size	_ZN7IwTween4Ease7backOutEff, .-_ZN7IwTween4Ease7backOutEff
	.align	2
.LC61:
	.word	1071238496
	.align	2
.LC62:
	.word	1065353216
	.section	.text._ZN7IwTween4Ease9backInOutEff,"ax",%progbits
	.align	2
	.global	_ZN7IwTween4Ease9backInOutEff
	.hidden	_ZN7IwTween4Ease9backInOutEff
	.type	_ZN7IwTween4Ease9backInOutEff, %function
_ZN7IwTween4Ease9backInOutEff:
.LFB502:
	.loc 4 211 0
	.cfi_startproc
	sub	sp, sp, #32
.LCFI34:
	.cfi_def_cfa_offset 32
	str	s0, [sp, 12]
	str	s1, [sp, 8]
.LBB22:
	.loc 4 212 0
	ldr	w0, [sp, 8]
	fmov	s0, wzr
	fmov	s1, w0
	fcmp	s1, s0
	bne	.L111
	.loc 4 212 0 is_stmt 0 discriminator 1
	ldr	w0, .LC64
	str	w0, [sp, 8]
.L111:
	.loc 4 213 0 is_stmt 1
	ldr	w0, .LC63
	str	w0, [sp, 28]
	.loc 4 214 0
	ldr	w0, [sp, 12]
	fmov	s0, w0
	fadd	s0, s0, s0
	fmov	w0, s0
	str	w0, [sp, 12]
	.loc 4 215 0
	ldr	w1, [sp, 12]
	ldr	w0, .LC64
	fmov	s0, w1
	fmov	s1, w0
	fcmpe	s0, s1
	bpl	.L116
	.loc 4 216 0
	ldr	w1, [sp, 12]
	ldr	w0, [sp, 12]
	fmov	s0, w1
	fmov	s1, w0
	fmul	s0, s0, s1
	fmov	w1, s0
	ldr	w2, [sp, 28]
	ldr	w0, .LC64
	fmov	s0, w2
	fmov	s1, w0
	fadd	s0, s0, s1
	fmov	w2, s0
	ldr	w0, [sp, 12]
	fmov	s0, w2
	fmov	s1, w0
	fmul	s0, s0, s1
	fmov	w2, s0
	ldr	w0, [sp, 28]
	fmov	s0, w2
	fmov	s1, w0
	fsub	s0, s0, s1
	fmov	w0, s0
	fmov	s0, w1
	fmov	s1, w0
	fmul	s0, s0, s1
	fmov	w1, s0
	ldr	w0, .LC65
	fmov	s0, w1
	fmov	s1, w0
	fdiv	s0, s0, s1
	fmov	w0, s0
	b	.L114
.L116:
	.loc 4 219 0
	ldr	w1, [sp, 12]
	ldr	w0, .LC65
	fmov	s0, w1
	fmov	s1, w0
	fsub	s0, s0, s1
	fmov	w0, s0
	str	w0, [sp, 12]
	.loc 4 220 0
	ldr	w1, [sp, 12]
	ldr	w0, [sp, 12]
	fmov	s0, w1
	fmov	s1, w0
	fmul	s0, s0, s1
	fmov	w1, s0
	ldr	w2, [sp, 28]
	ldr	w0, .LC64
	fmov	s0, w2
	fmov	s1, w0
	fadd	s0, s0, s1
	fmov	w2, s0
	ldr	w0, [sp, 12]
	fmov	s0, w2
	fmov	s1, w0
	fmul	s0, s0, s1
	fmov	w2, s0
	ldr	w0, [sp, 28]
	fmov	s0, w2
	fmov	s1, w0
	fadd	s0, s0, s1
	fmov	w0, s0
	fmov	s0, w1
	fmov	s1, w0
	fmul	s0, s0, s1
	fmov	w1, s0
	ldr	w0, .LC65
	fmov	s0, w1
	fmov	s1, w0
	fdiv	s0, s0, s1
	fmov	w1, s0
	ldr	w0, .LC64
	fmov	s0, w1
	fmov	s1, w0
	fadd	s0, s0, s1
	fmov	w0, s0
.L114:
.LBE22:
	.loc 4 222 0
	fmov	s0, w0
	add	sp, sp, 32
.LCFI35:
	.cfi_def_cfa_offset 0
	ret
	.cfi_endproc
.LFE502:
	.size	_ZN7IwTween4Ease9backInOutEff, .-_ZN7IwTween4Ease9backInOutEff
	.align	2
.LC63:
	.word	1076237055
	.align	2
.LC64:
	.word	1065353216
	.align	2
.LC65:
	.word	1073741824
	.section	.rodata
	.align	3
.LC66:
	.string	"TWEEN"
	.align	3
.LC67:
	.string	"Variable argument list contains illegal CTween::Type value"
	.align	3
.LC68:
	.string	"e:/7.10/modules/iwtween/source/IwTween.cpp"
	.align	3
.LC69:
	.string	"type <= END"
	.align	3
.LC70:
	.string	"Unknown type"
	.align	3
.LC71:
	.string	"false"
	.section	.text._ZN7IwTween13CTweenManager5TweenEfz,"ax",%progbits
	.align	2
	.global	_ZN7IwTween13CTweenManager5TweenEfz
	.hidden	_ZN7IwTween13CTweenManager5TweenEfz
	.type	_ZN7IwTween13CTweenManager5TweenEfz, %function
_ZN7IwTween13CTweenManager5TweenEfz:
.LFB503:
	.loc 4 230 0
	.cfi_startproc
	sub	sp, sp, #528
.LCFI36:
	.cfi_def_cfa_offset 528
	stp	x19, x30, [sp, -16]!
.LCFI37:
	.cfi_def_cfa_offset 544
	.cfi_offset 19, -544
	.cfi_offset 30, -536
	str	x0, [sp, 72]
	str	x1, [sp, 488]
	str	x2, [sp, 496]
	str	x3, [sp, 504]
	str	x4, [sp, 512]
	str	x5, [sp, 520]
	str	x6, [sp, 528]
	str	x7, [sp, 536]
	add	x0, sp, 368
	str	q1, [x0]
	add	x0, sp, 384
	str	q2, [x0]
	add	x0, sp, 400
	str	q3, [x0]
	add	x0, sp, 416
	str	q4, [x0]
	add	x0, sp, 432
	str	q5, [x0]
	add	x0, sp, 448
	str	q6, [x0]
	add	x0, sp, 464
	str	q7, [x0]
	str	s0, [sp, 68]
.LBB23:
	.loc 4 232 0
	add	x0, sp, 112
	bl	_ZN7IwTween6CTween4SpecC2Ev
	.loc 4 233 0
	ldr	w0, [sp, 68]
	str	w0, [sp, 112]
	.loc 4 234 0
	add	x0, sp, 16
	add	x1, sp, 112
	ldp	x2, x3, [x1]
	stp	x2, x3, [x0]
	ldp	x2, x3, [x1, 16]
	stp	x2, x3, [x0, 16]
	ldp	x1, x2, [x1, 32]
	stp	x1, x2, [x0, 32]
	add	x1, sp, 16
	add	x0, sp, 160
	bl	_ZN7IwTween6CTweenC1ENS0_4SpecE
	.loc 4 235 0
	ldr	x0, [sp, 72]
	add	x1, sp, 160
	bl	_ZN4_STL6vectorIN7IwTween6CTweenENS_9allocatorIS2_EEE9push_backERKS2_
	.loc 4 236 0
	ldr	x19, [sp, 72]
	ldr	x0, [sp, 72]
	bl	_ZNK4_STL6vectorIN7IwTween6CTweenENS_9allocatorIS2_EEE4sizeEv
	sub	x0, x0, #1
	mov	x1, x0
	mov	x0, x19
	bl	_ZN4_STL6vectorIN7IwTween6CTweenENS_9allocatorIS2_EEEixEm
	str	x0, [sp, 352]
	.loc 4 237 0
	ldr	x0, [sp, 352]
	mov	w1, 1
	strb	w1, [x0, 52]
	.loc 4 238 0
	ldr	x0, [sp, 352]
	ldr	x1, [sp, 72]
	str	x1, [x0, 88]
	.loc 4 241 0
	ldr	x0, [sp, 352]
	ldr	w1, .LC72
	str	w1, [x0, 48]
	.loc 4 242 0
	ldr	x0, [sp, 352]
	strb	wzr, [x0, 53]
	.loc 4 243 0
	ldr	x0, [sp, 352]
	strb	wzr, [x0, 55]
	.loc 4 244 0
	ldr	x0, [sp, 352]
	strb	wzr, [x0, 54]
	.loc 4 245 0
	ldr	x0, [sp, 352]
	str	wzr, [x0, 56]
	.loc 4 249 0
	add	x0, sp, 544
	str	x0, [sp, 80]
	add	x0, sp, 544
	str	x0, [sp, 88]
	add	x0, sp, 480
	str	x0, [sp, 96]
	mov	w0, -56
	str	w0, [sp, 104]
	mov	w0, -112
	str	w0, [sp, 108]
	.loc 4 251 0
	strb	wzr, [sp, 367]
	.loc 4 252 0
	b	.L118
.L215:
.LBB24:
	.loc 4 254 0
	ldr	w0, [sp, 104]
	ldr	x1, [sp, 80]
	cmp	w0, wzr
	blt	.L119
	.loc 4 254 0 is_stmt 0 discriminator 1
	mov	x0, x1
	add	x0, x0, 11
	and	x0, x0, -8
	str	x0, [sp, 80]
	mov	x0, x1
	b	.L120
.L119:
	.loc 4 254 0 discriminator 2
	add	w2, w0, 8
	str	w2, [sp, 104]
	ldr	w2, [sp, 104]
	cmp	w2, wzr
	ble	.L121
	.loc 4 254 0 discriminator 4
	mov	x0, x1
	add	x0, x0, 11
	and	x0, x0, -8
	str	x0, [sp, 80]
	mov	x0, x1
	b	.L120
.L121:
	.loc 4 254 0 discriminator 5
	ldr	x1, [sp, 88]
	sxtw	x0, w0
	add	x0, x1, x0
.L120:
	.loc 4 254 0 discriminator 8
	ldr	w0, [x0]
	str	w0, [sp, 348]
.LBB25:
.LBB26:
	.loc 4 258 0 is_stmt 1 discriminator 8
	ldr	w0, [sp, 348]
	cmp	w0, 274
	ble	.L123
	.loc 4 258 0 is_stmt 0 discriminator 1
	adrp	x0, .LC66
	add	x0, x0, :lo12:.LC66
	bl	IwDebugAssertIsChannelOn
	uxtb	w0, w0
	cmp	w0, wzr
	beq	.L123
	.loc 4 258 0 discriminator 3
	adrp	x0, _ZZN7IwTween13CTweenManager5TweenEfzE21_s_IwAssertIgnoreThis
	add	x0, x0, :lo12:_ZZN7IwTween13CTweenManager5TweenEfzE21_s_IwAssertIgnoreThis
	ldrb	w0, [x0]
	cmp	w0, wzr
	bne	.L123
	.loc 4 258 0 discriminator 5
	mov	w0, 1
	b	.L124
.L123:
	.loc 4 258 0 discriminator 6
	mov	w0, 0
.L124:
	.loc 4 258 0 discriminator 8
	cmp	w0, wzr
	beq	.L125
	.loc 4 258 0 discriminator 9
	mov	x0, 0
	bl	IwDebugAssertSetSolution
	mov	w0, 0
	bl	IwDebugAssertSetUID
	adrp	x0, .LC67
	add	x0, x0, :lo12:.LC67
	bl	IwDebugAssertSetMessage
	adrp	x0, .LC68
	add	x1, x0, :lo12:.LC68
	adrp	x0, .LC69
	add	x0, x0, :lo12:.LC69
	mov	w3, 1
	mov	w2, 258
	bl	IwDebugAssertShow
	cmp	w0, 1
	beq	.L127
	cmp	w0, 2
	beq	.L128
	.loc 4 258 0
	b	.L126
.L127:
	.loc 4 258 0 discriminator 11
	bl	s3eDebugIsDebuggerPresent
	uxtb	w0, w0
	cmp	w0, wzr
	cset	w0, ne
	uxtb	w0, w0
	cmp	w0, wzr
	bne	.L129
	.loc 4 258 0 discriminator 13
	bl	_ZL11IwDebugExitv
	b	.L126
.L129:
	.loc 4 258 0 discriminator 1
	b	.L126
.L128:
	.loc 4 258 0 discriminator 12
	adrp	x0, _ZZN7IwTween13CTweenManager5TweenEfzE21_s_IwAssertIgnoreThis
	add	x0, x0, :lo12:_ZZN7IwTween13CTweenManager5TweenEfzE21_s_IwAssertIgnoreThis
	mov	w1, 1
	strb	w1, [x0]
	nop
.L126:
	.loc 4 258 0 discriminator 14
	mov	w0, 0
	bl	IwDebugAssertSetUID
.L125:
.LBE26:
.LBE25:
.LBB27:
	.loc 4 259 0 is_stmt 1
	ldr	w0, [sp, 348]
	sub	w0, w0, #264
	cmp	w0, 10
	bhi	.L130
	adrp	x1, .L132
	add	x1, x1, :lo12:.L132
	ldr	w0, [x1,w0,uxtw #2]
	adr	x1, .Lrtx132
	add	x0, x1, w0, sxtw #2
	br	x0
.Lrtx132:
	.section	.rodata
	.align	0
	.align	2
.L132:
	.word	(.L131 - .Lrtx132) / 4
	.word	(.L133 - .Lrtx132) / 4
	.word	(.L133 - .Lrtx132) / 4
	.word	(.L133 - .Lrtx132) / 4
	.word	(.L134 - .Lrtx132) / 4
	.word	(.L135 - .Lrtx132) / 4
	.word	(.L136 - .Lrtx132) / 4
	.word	(.L137 - .Lrtx132) / 4
	.word	(.L138 - .Lrtx132) / 4
	.word	(.L139 - .Lrtx132) / 4
	.word	(.L140 - .Lrtx132) / 4
	.section	.text._ZN7IwTween13CTweenManager5TweenEfz
.L140:
.LBB28:
	.loc 4 263 0
	mov	w0, 1
	strb	w0, [sp, 367]
	.loc 4 264 0
	b	.L118
.L131:
	.loc 4 268 0
	ldr	x0, [sp, 352]
	strb	wzr, [x0, 52]
	.loc 4 269 0
	b	.L118
.L134:
	.loc 4 272 0
	ldr	w0, [sp, 108]
	ldr	x1, [sp, 80]
	cmp	w0, wzr
	blt	.L141
	.loc 4 272 0 is_stmt 0 discriminator 1
	mov	x0, x1
	add	x0, x0, 15
	and	x0, x0, -8
	str	x0, [sp, 80]
	mov	x0, x1
	b	.L142
.L141:
	.loc 4 272 0 discriminator 2
	add	w2, w0, 16
	str	w2, [sp, 108]
	ldr	w2, [sp, 108]
	cmp	w2, wzr
	ble	.L143
	.loc 4 272 0 discriminator 4
	mov	x0, x1
	add	x0, x0, 15
	and	x0, x0, -8
	str	x0, [sp, 80]
	mov	x0, x1
	b	.L142
.L143:
	.loc 4 272 0 discriminator 5
	ldr	x1, [sp, 96]
	sxtw	x0, w0
	add	x0, x1, x0
.L142:
	.loc 4 272 0 discriminator 8
	ldr	x0, [x0]
	fmov	d0, x0
	fcvt	s0, d0
	fmov	w1, s0
	ldr	x0, [sp, 352]
	str	w1, [x0, 4]
	.loc 4 273 0 is_stmt 1 discriminator 8
	b	.L118
.L135:
	.loc 4 276 0
	ldr	x0, [sp, 352]
	mov	w1, 1
	strb	w1, [x0, 8]
	.loc 4 277 0
	b	.L118
.L133:
	.loc 4 282 0
	ldr	x0, [sp, 352]
	ldr	w1, [sp, 348]
	str	w1, [x0, 12]
	.loc 4 283 0
	b	.L118
.L136:
	.loc 4 286 0
	ldr	w0, [sp, 104]
	ldr	x1, [sp, 80]
	cmp	w0, wzr
	blt	.L145
	.loc 4 286 0 is_stmt 0 discriminator 1
	mov	x0, x1
	add	x0, x0, 15
	and	x0, x0, -8
	str	x0, [sp, 80]
	mov	x0, x1
	b	.L146
.L145:
	.loc 4 286 0 discriminator 2
	add	w2, w0, 8
	str	w2, [sp, 104]
	ldr	w2, [sp, 104]
	cmp	w2, wzr
	ble	.L147
	.loc 4 286 0 discriminator 4
	mov	x0, x1
	add	x0, x0, 15
	and	x0, x0, -8
	str	x0, [sp, 80]
	mov	x0, x1
	b	.L146
.L147:
	.loc 4 286 0 discriminator 5
	ldr	x1, [sp, 88]
	sxtw	x0, w0
	add	x0, x1, x0
.L146:
	.loc 4 286 0 discriminator 8
	ldr	x1, [x0]
	ldr	x0, [sp, 352]
	str	x1, [x0, 16]
	.loc 4 287 0 is_stmt 1 discriminator 8
	b	.L118
.L137:
	.loc 4 290 0
	ldr	w0, [sp, 108]
	ldr	x1, [sp, 80]
	cmp	w0, wzr
	blt	.L149
	.loc 4 290 0 is_stmt 0 discriminator 1
	mov	x0, x1
	add	x0, x0, 15
	and	x0, x0, -8
	str	x0, [sp, 80]
	mov	x0, x1
	b	.L150
.L149:
	.loc 4 290 0 discriminator 2
	add	w2, w0, 16
	str	w2, [sp, 108]
	ldr	w2, [sp, 108]
	cmp	w2, wzr
	ble	.L151
	.loc 4 290 0 discriminator 4
	mov	x0, x1
	add	x0, x0, 15
	and	x0, x0, -8
	str	x0, [sp, 80]
	mov	x0, x1
	b	.L150
.L151:
	.loc 4 290 0 discriminator 5
	ldr	x1, [sp, 96]
	sxtw	x0, w0
	add	x0, x1, x0
.L150:
	.loc 4 290 0 discriminator 8
	ldr	x0, [x0]
	fmov	d0, x0
	fcvt	s0, d0
	fmov	w1, s0
	ldr	x0, [sp, 352]
	str	w1, [x0, 24]
	.loc 4 291 0 is_stmt 1 discriminator 8
	b	.L118
.L138:
	.loc 4 294 0
	ldr	w0, [sp, 104]
	ldr	x1, [sp, 80]
	cmp	w0, wzr
	blt	.L153
	.loc 4 294 0 is_stmt 0 discriminator 1
	mov	x0, x1
	add	x0, x0, 15
	and	x0, x0, -8
	str	x0, [sp, 80]
	mov	x0, x1
	b	.L154
.L153:
	.loc 4 294 0 discriminator 2
	add	w2, w0, 8
	str	w2, [sp, 104]
	ldr	w2, [sp, 104]
	cmp	w2, wzr
	ble	.L155
	.loc 4 294 0 discriminator 4
	mov	x0, x1
	add	x0, x0, 15
	and	x0, x0, -8
	str	x0, [sp, 80]
	mov	x0, x1
	b	.L154
.L155:
	.loc 4 294 0 discriminator 5
	ldr	x1, [sp, 88]
	sxtw	x0, w0
	add	x0, x1, x0
.L154:
	.loc 4 294 0 discriminator 8
	ldr	x1, [x0]
	ldr	x0, [sp, 352]
	str	x1, [x0, 32]
	.loc 4 295 0 is_stmt 1 discriminator 8
	b	.L118
.L139:
	.loc 4 298 0
	ldr	w0, [sp, 104]
	ldr	x1, [sp, 80]
	cmp	w0, wzr
	blt	.L157
	.loc 4 298 0 is_stmt 0 discriminator 1
	mov	x0, x1
	add	x0, x0, 15
	and	x0, x0, -8
	str	x0, [sp, 80]
	mov	x0, x1
	b	.L158
.L157:
	.loc 4 298 0 discriminator 2
	add	w2, w0, 8
	str	w2, [sp, 104]
	ldr	w2, [sp, 104]
	cmp	w2, wzr
	ble	.L159
	.loc 4 298 0 discriminator 4
	mov	x0, x1
	add	x0, x0, 15
	and	x0, x0, -8
	str	x0, [sp, 80]
	mov	x0, x1
	b	.L158
.L159:
	.loc 4 298 0 discriminator 5
	ldr	x1, [sp, 88]
	sxtw	x0, w0
	add	x0, x1, x0
.L158:
	.loc 4 298 0 discriminator 8
	ldr	x1, [x0]
	ldr	x0, [sp, 352]
	str	x1, [x0, 40]
	.loc 4 299 0 is_stmt 1 discriminator 8
	b	.L118
.L130:
	.loc 4 303 0
	ldr	w0, [sp, 104]
	ldr	x1, [sp, 80]
	cmp	w0, wzr
	blt	.L161
	.loc 4 303 0 is_stmt 0 discriminator 1
	mov	x0, x1
	add	x0, x0, 15
	and	x0, x0, -8
	str	x0, [sp, 80]
	mov	x0, x1
	b	.L162
.L161:
	.loc 4 303 0 discriminator 2
	add	w2, w0, 8
	str	w2, [sp, 104]
	ldr	w2, [sp, 104]
	cmp	w2, wzr
	ble	.L163
	.loc 4 303 0 discriminator 4
	mov	x0, x1
	add	x0, x0, 15
	and	x0, x0, -8
	str	x0, [sp, 80]
	mov	x0, x1
	b	.L162
.L163:
	.loc 4 303 0 discriminator 5
	ldr	x1, [sp, 88]
	sxtw	x0, w0
	add	x0, x1, x0
.L162:
	.loc 4 303 0 discriminator 8
	ldr	x0, [x0]
	str	x0, [sp, 336]
.LBB29:
	.loc 4 304 0 is_stmt 1 discriminator 8
	ldr	w0, [sp, 348]
	sub	w0, w0, #256
	cmp	w0, 7
	bhi	.L165
	adrp	x1, .L167
	add	x1, x1, :lo12:.L167
	ldr	w0, [x1,w0,uxtw #2]
	adr	x1, .Lrtx167
	add	x0, x1, w0, sxtw #2
	br	x0
.Lrtx167:
	.section	.rodata
	.align	0
	.align	2
.L167:
	.word	(.L166 - .Lrtx167) / 4
	.word	(.L168 - .Lrtx167) / 4
	.word	(.L169 - .Lrtx167) / 4
	.word	(.L170 - .Lrtx167) / 4
	.word	(.L171 - .Lrtx167) / 4
	.word	(.L172 - .Lrtx167) / 4
	.word	(.L173 - .Lrtx167) / 4
	.word	(.L174 - .Lrtx167) / 4
	.section	.text._ZN7IwTween13CTweenManager5TweenEfz
.L166:
.LBB30:
.LBB31:
	.loc 4 309 0
	ldr	w0, [sp, 104]
	ldr	x1, [sp, 80]
	cmp	w0, wzr
	blt	.L175
	.loc 4 309 0 is_stmt 0 discriminator 1
	mov	x0, x1
	add	x0, x0, 11
	and	x0, x0, -8
	str	x0, [sp, 80]
	mov	x0, x1
	b	.L176
.L175:
	.loc 4 309 0 discriminator 2
	add	w2, w0, 8
	str	w2, [sp, 104]
	ldr	w2, [sp, 104]
	cmp	w2, wzr
	ble	.L177
	.loc 4 309 0 discriminator 4
	mov	x0, x1
	add	x0, x0, 11
	and	x0, x0, -8
	str	x0, [sp, 80]
	mov	x0, x1
	b	.L176
.L177:
	.loc 4 309 0 discriminator 5
	ldr	x1, [sp, 88]
	sxtw	x0, w0
	add	x0, x1, x0
.L176:
	.loc 4 309 0 discriminator 8
	ldr	w0, [x0]
	cmp	w0, wzr
	cset	w0, ne
	uxtb	w0, w0
	strb	w0, [sp, 304]
	.loc 4 310 0 is_stmt 1 discriminator 8
	add	x0, sp, 304
	ldr	w0, [x0]
	str	w0, [sp, 360]
.LBE31:
	.loc 4 312 0 discriminator 8
	b	.L179
.L168:
.LBB32:
	.loc 4 316 0
	ldr	w0, [sp, 104]
	ldr	x1, [sp, 80]
	cmp	w0, wzr
	blt	.L180
	.loc 4 316 0 is_stmt 0 discriminator 1
	mov	x0, x1
	add	x0, x0, 11
	and	x0, x0, -8
	str	x0, [sp, 80]
	mov	x0, x1
	b	.L181
.L180:
	.loc 4 316 0 discriminator 2
	add	w2, w0, 8
	str	w2, [sp, 104]
	ldr	w2, [sp, 104]
	cmp	w2, wzr
	ble	.L182
	.loc 4 316 0 discriminator 4
	mov	x0, x1
	add	x0, x0, 11
	and	x0, x0, -8
	str	x0, [sp, 80]
	mov	x0, x1
	b	.L181
.L182:
	.loc 4 316 0 discriminator 5
	ldr	x1, [sp, 88]
	sxtw	x0, w0
	add	x0, x1, x0
.L181:
	.loc 4 316 0 discriminator 8
	ldr	w0, [x0]
	sxtb	w0, w0
	strb	w0, [sp, 296]
	.loc 4 317 0 is_stmt 1 discriminator 8
	add	x0, sp, 296
	ldr	w0, [x0]
	str	w0, [sp, 360]
.LBE32:
	.loc 4 319 0 discriminator 8
	b	.L179
.L169:
.LBB33:
	.loc 4 323 0
	ldr	w0, [sp, 104]
	ldr	x1, [sp, 80]
	cmp	w0, wzr
	blt	.L184
	.loc 4 323 0 is_stmt 0 discriminator 1
	mov	x0, x1
	add	x0, x0, 11
	and	x0, x0, -8
	str	x0, [sp, 80]
	mov	x0, x1
	b	.L185
.L184:
	.loc 4 323 0 discriminator 2
	add	w2, w0, 8
	str	w2, [sp, 104]
	ldr	w2, [sp, 104]
	cmp	w2, wzr
	ble	.L186
	.loc 4 323 0 discriminator 4
	mov	x0, x1
	add	x0, x0, 11
	and	x0, x0, -8
	str	x0, [sp, 80]
	mov	x0, x1
	b	.L185
.L186:
	.loc 4 323 0 discriminator 5
	ldr	x1, [sp, 88]
	sxtw	x0, w0
	add	x0, x1, x0
.L185:
	.loc 4 323 0 discriminator 8
	ldr	w0, [x0]
	uxtb	w0, w0
	strb	w0, [sp, 288]
	.loc 4 324 0 is_stmt 1 discriminator 8
	add	x0, sp, 288
	ldr	w0, [x0]
	str	w0, [sp, 360]
.LBE33:
	.loc 4 326 0 discriminator 8
	b	.L179
.L170:
.LBB34:
	.loc 4 330 0
	ldr	w0, [sp, 104]
	ldr	x1, [sp, 80]
	cmp	w0, wzr
	blt	.L188
	.loc 4 330 0 is_stmt 0 discriminator 1
	mov	x0, x1
	add	x0, x0, 11
	and	x0, x0, -8
	str	x0, [sp, 80]
	mov	x0, x1
	b	.L189
.L188:
	.loc 4 330 0 discriminator 2
	add	w2, w0, 8
	str	w2, [sp, 104]
	ldr	w2, [sp, 104]
	cmp	w2, wzr
	ble	.L190
	.loc 4 330 0 discriminator 4
	mov	x0, x1
	add	x0, x0, 11
	and	x0, x0, -8
	str	x0, [sp, 80]
	mov	x0, x1
	b	.L189
.L190:
	.loc 4 330 0 discriminator 5
	ldr	x1, [sp, 88]
	sxtw	x0, w0
	add	x0, x1, x0
.L189:
	.loc 4 330 0 discriminator 8
	ldr	w0, [x0]
	sxth	w0, w0
	strh	w0, [sp, 280]
	.loc 4 331 0 is_stmt 1 discriminator 8
	add	x0, sp, 280
	ldr	w0, [x0]
	str	w0, [sp, 360]
.LBE34:
	.loc 4 333 0 discriminator 8
	b	.L179
.L171:
.LBB35:
	.loc 4 337 0
	ldr	w0, [sp, 104]
	ldr	x1, [sp, 80]
	cmp	w0, wzr
	blt	.L192
	.loc 4 337 0 is_stmt 0 discriminator 1
	mov	x0, x1
	add	x0, x0, 11
	and	x0, x0, -8
	str	x0, [sp, 80]
	mov	x0, x1
	b	.L193
.L192:
	.loc 4 337 0 discriminator 2
	add	w2, w0, 8
	str	w2, [sp, 104]
	ldr	w2, [sp, 104]
	cmp	w2, wzr
	ble	.L194
	.loc 4 337 0 discriminator 4
	mov	x0, x1
	add	x0, x0, 11
	and	x0, x0, -8
	str	x0, [sp, 80]
	mov	x0, x1
	b	.L193
.L194:
	.loc 4 337 0 discriminator 5
	ldr	x1, [sp, 88]
	sxtw	x0, w0
	add	x0, x1, x0
.L193:
	.loc 4 337 0 discriminator 8
	ldr	w0, [x0]
	uxth	w0, w0
	strh	w0, [sp, 272]
	.loc 4 338 0 is_stmt 1 discriminator 8
	add	x0, sp, 272
	ldr	w0, [x0]
	str	w0, [sp, 360]
.LBE35:
	.loc 4 340 0 discriminator 8
	b	.L179
.L172:
.LBB36:
	.loc 4 343 0
	ldr	w0, [sp, 104]
	ldr	x1, [sp, 80]
	cmp	w0, wzr
	blt	.L196
	.loc 4 343 0 is_stmt 0 discriminator 1
	mov	x0, x1
	add	x0, x0, 11
	and	x0, x0, -8
	str	x0, [sp, 80]
	mov	x0, x1
	b	.L197
.L196:
	.loc 4 343 0 discriminator 2
	add	w2, w0, 8
	str	w2, [sp, 104]
	ldr	w2, [sp, 104]
	cmp	w2, wzr
	ble	.L198
	.loc 4 343 0 discriminator 4
	mov	x0, x1
	add	x0, x0, 11
	and	x0, x0, -8
	str	x0, [sp, 80]
	mov	x0, x1
	b	.L197
.L198:
	.loc 4 343 0 discriminator 5
	ldr	x1, [sp, 88]
	sxtw	x0, w0
	add	x0, x1, x0
.L197:
	.loc 4 343 0 discriminator 8
	ldr	w0, [x0]
	str	w0, [sp, 268]
	.loc 4 344 0 is_stmt 1 discriminator 8
	ldr	w0, [sp, 268]
	str	w0, [sp, 360]
.LBE36:
	.loc 4 346 0 discriminator 8
	b	.L179
.L173:
.LBB37:
	.loc 4 349 0
	ldr	w0, [sp, 104]
	ldr	x1, [sp, 80]
	cmp	w0, wzr
	blt	.L200
	.loc 4 349 0 is_stmt 0 discriminator 1
	mov	x0, x1
	add	x0, x0, 11
	and	x0, x0, -8
	str	x0, [sp, 80]
	mov	x0, x1
	b	.L201
.L200:
	.loc 4 349 0 discriminator 2
	add	w2, w0, 8
	str	w2, [sp, 104]
	ldr	w2, [sp, 104]
	cmp	w2, wzr
	ble	.L202
	.loc 4 349 0 discriminator 4
	mov	x0, x1
	add	x0, x0, 11
	and	x0, x0, -8
	str	x0, [sp, 80]
	mov	x0, x1
	b	.L201
.L202:
	.loc 4 349 0 discriminator 5
	ldr	x1, [sp, 88]
	sxtw	x0, w0
	add	x0, x1, x0
.L201:
	.loc 4 349 0 discriminator 8
	ldr	w0, [x0]
	str	w0, [sp, 264]
	.loc 4 350 0 is_stmt 1 discriminator 8
	add	x0, sp, 264
	ldr	w0, [x0]
	str	w0, [sp, 360]
.LBE37:
	.loc 4 352 0 discriminator 8
	b	.L179
.L174:
.LBB38:
	.loc 4 355 0
	ldr	w0, [sp, 108]
	ldr	x1, [sp, 80]
	cmp	w0, wzr
	blt	.L204
	.loc 4 355 0 is_stmt 0 discriminator 1
	mov	x0, x1
	add	x0, x0, 15
	and	x0, x0, -8
	str	x0, [sp, 80]
	mov	x0, x1
	b	.L205
.L204:
	.loc 4 355 0 discriminator 2
	add	w2, w0, 16
	str	w2, [sp, 108]
	ldr	w2, [sp, 108]
	cmp	w2, wzr
	ble	.L206
	.loc 4 355 0 discriminator 4
	mov	x0, x1
	add	x0, x0, 15
	and	x0, x0, -8
	str	x0, [sp, 80]
	mov	x0, x1
	b	.L205
.L206:
	.loc 4 355 0 discriminator 5
	ldr	x1, [sp, 96]
	sxtw	x0, w0
	add	x0, x1, x0
.L205:
	.loc 4 355 0 discriminator 8
	ldr	x0, [x0]
	fmov	d0, x0
	fcvt	s0, d0
	fmov	w0, s0
	str	w0, [sp, 260]
	.loc 4 356 0 is_stmt 1 discriminator 8
	add	x0, sp, 260
	ldr	w0, [x0]
	str	w0, [sp, 360]
.LBE38:
	.loc 4 358 0 discriminator 8
	b	.L179
.L165:
.LBB39:
.LBB40:
	.loc 4 360 0
	adrp	x0, .LC66
	add	x0, x0, :lo12:.LC66
	bl	IwDebugAssertIsChannelOn
	uxtb	w0, w0
	cmp	w0, wzr
	beq	.L208
	.loc 4 360 0 is_stmt 0 discriminator 1
	adrp	x0, _ZZN7IwTween13CTweenManager5TweenEfzE21_s_IwAssertIgnoreThis_0
	add	x0, x0, :lo12:_ZZN7IwTween13CTweenManager5TweenEfzE21_s_IwAssertIgnoreThis_0
	ldrb	w0, [x0]
	cmp	w0, wzr
	bne	.L208
	.loc 4 360 0 discriminator 3
	mov	w0, 1
	b	.L209
.L208:
	.loc 4 360 0 discriminator 4
	mov	w0, 0
.L209:
	.loc 4 360 0 discriminator 6
	cmp	w0, wzr
	beq	.L210
	.loc 4 360 0 discriminator 7
	mov	x0, 0
	bl	IwDebugAssertSetSolution
	mov	w0, 0
	bl	IwDebugAssertSetUID
	adrp	x0, .LC70
	add	x0, x0, :lo12:.LC70
	bl	IwDebugAssertSetMessage
	adrp	x0, .LC68
	add	x1, x0, :lo12:.LC68
	adrp	x0, .LC71
	add	x0, x0, :lo12:.LC71
	mov	w3, 1
	mov	w2, 360
	bl	IwDebugAssertShow
	cmp	w0, 1
	beq	.L212
	cmp	w0, 2
	beq	.L213
	.loc 4 360 0
	b	.L211
.L212:
	.loc 4 360 0 discriminator 9
	bl	s3eDebugIsDebuggerPresent
	uxtb	w0, w0
	cmp	w0, wzr
	cset	w0, ne
	uxtb	w0, w0
	cmp	w0, wzr
	bne	.L214
	.loc 4 360 0 discriminator 11
	bl	_ZL11IwDebugExitv
	b	.L211
.L214:
	.loc 4 360 0 discriminator 2
	b	.L211
.L213:
	.loc 4 360 0 discriminator 10
	adrp	x0, _ZZN7IwTween13CTweenManager5TweenEfzE21_s_IwAssertIgnoreThis_0
	add	x0, x0, :lo12:_ZZN7IwTween13CTweenManager5TweenEfzE21_s_IwAssertIgnoreThis_0
	mov	w1, 1
	strb	w1, [x0]
	nop
.L211:
	.loc 4 360 0 discriminator 12
	mov	w0, 0
	bl	IwDebugAssertSetUID
.L210:
.LBE40:
.LBE39:
	.loc 4 361 0 is_stmt 1
	nop
.L179:
.LBE30:
.LBE29:
	.loc 4 363 0
	ldr	x0, [sp, 352]
	add	x19, x0, 64
	add	x0, sp, 312
	ldr	w3, [sp, 360]
	ldr	x2, [sp, 336]
	ldr	w1, [sp, 348]
	bl	_ZN7IwTween6CTween9ValueTypeC1ENS_4TypeEPvi
	add	x0, sp, 312
	mov	x1, x0
	mov	x0, x19
	bl	_ZN4_STL6vectorIN7IwTween6CTween9ValueTypeENS_9allocatorIS3_EEE9push_backERKS3_
	.loc 4 364 0
	nop
.L118:
.LBE28:
.LBE27:
.LBE24:
	.loc 4 252 0
	ldrb	w0, [sp, 367]
	eor	w0, w0, 1
	uxtb	w0, w0
	cmp	w0, wzr
	bne	.L215
	.loc 4 368 0
	ldr	x19, [sp, 352]
	add	x0, sp, 160
	bl	_ZN7IwTween6CTweenD1Ev
	mov	x0, x19
.LBE23:
	.loc 4 369 0
	ldp	x19, x30, [sp], 16
	.cfi_restore 30
	.cfi_restore 19
	add	sp, sp, 528
.LCFI38:
	.cfi_def_cfa_offset 528
	ret
	.cfi_endproc
.LFE503:
	.size	_ZN7IwTween13CTweenManager5TweenEfz, .-_ZN7IwTween13CTweenManager5TweenEfz
	.align	2
.LC72:
	.word	0
	.section	.text._ZN7IwTween13CTweenManager6UpdateEf,"ax",%progbits
	.align	2
	.global	_ZN7IwTween13CTweenManager6UpdateEf
	.hidden	_ZN7IwTween13CTweenManager6UpdateEf
	.type	_ZN7IwTween13CTweenManager6UpdateEf, %function
_ZN7IwTween13CTweenManager6UpdateEf:
.LFB504:
	.loc 4 372 0
	.cfi_startproc
	str	x30, [sp, -48]!
.LCFI39:
	.cfi_def_cfa_offset 48
	.cfi_offset 30, -48
	str	x0, [sp, 24]
	str	s0, [sp, 20]
.LBB41:
	.loc 4 373 0
	ldr	x0, [sp, 24]
	bl	_ZN4_STL6vectorIN7IwTween6CTweenENS_9allocatorIS2_EEE5beginEv
	str	x0, [sp, 40]
.LBB42:
	.loc 4 374 0
	b	.L218
.L222:
.LBB43:
.LBB44:
	.loc 4 377 0
	ldr	x0, [sp, 40]
	ldrb	w0, [x0, 53]
	eor	w0, w0, 1
	uxtb	w0, w0
	.loc 4 376 0
	cmp	w0, wzr
	beq	.L219
	.loc 4 378 0
	ldr	x0, [sp, 40]
	ldrb	w0, [x0, 55]
	eor	w0, w0, 1
	uxtb	w0, w0
	.loc 4 377 0
	cmp	w0, wzr
	beq	.L219
.LBB45:
	.loc 4 381 0
	ldr	s0, [sp, 20]
	ldr	x0, [sp, 40]
	bl	_ZN7IwTween6CTween6UpdateEf
	strb	w0, [sp, 39]
	.loc 4 382 0
	ldrb	w0, [sp, 39]
	cmp	w0, wzr
	beq	.L220
	.loc 4 383 0
	ldr	x0, [sp, 24]
	ldr	x1, [sp, 40]
	bl	_ZN4_STL6vectorIN7IwTween6CTweenENS_9allocatorIS2_EEE5eraseEPS2_
	b	.L221
.L220:
	.loc 4 385 0
	ldr	x0, [sp, 40]
	add	x0, x0, 96
	str	x0, [sp, 40]
.L221:
.LBE45:
	b	.L218
.L219:
	.loc 4 388 0
	ldr	x0, [sp, 40]
	add	x0, x0, 96
	str	x0, [sp, 40]
.L218:
.LBE44:
.LBE43:
	.loc 4 374 0
	ldr	x0, [sp, 24]
	bl	_ZN4_STL6vectorIN7IwTween6CTweenENS_9allocatorIS2_EEE3endEv
	mov	x1, x0
	ldr	x0, [sp, 40]
	cmp	x1, x0
	cset	w0, ne
	uxtb	w0, w0
	cmp	w0, wzr
	bne	.L222
.LBE42:
.LBE41:
	.loc 4 390 0
	ldr	x30, [sp], 48
	.cfi_restore 30
	ret
	.cfi_endproc
.LFE504:
	.size	_ZN7IwTween13CTweenManager6UpdateEf, .-_ZN7IwTween13CTweenManager6UpdateEf
	.section	.text._ZN7IwTween6CTween9ValueType19SetFromCurrentValueEPvS2_b,"ax",%progbits
	.align	2
	.global	_ZN7IwTween6CTween9ValueType19SetFromCurrentValueEPvS2_b
	.hidden	_ZN7IwTween6CTween9ValueType19SetFromCurrentValueEPvS2_b
	.type	_ZN7IwTween6CTween9ValueType19SetFromCurrentValueEPvS2_b, %function
_ZN7IwTween6CTween9ValueType19SetFromCurrentValueEPvS2_b:
.LFB505:
	.loc 4 396 0
	.cfi_startproc
	sub	sp, sp, #32
.LCFI40:
	.cfi_def_cfa_offset 32
	str	x0, [sp, 24]
	str	x1, [sp, 16]
	str	x2, [sp, 8]
	strb	w3, [sp, 7]
	.loc 4 398 0
	ldr	x0, [sp, 24]
	ldr	w0, [x0]
	sub	w0, w0, #256
	cmp	w0, 7
	bhi	.L249
	adrp	x1, .L226
	add	x1, x1, :lo12:.L226
	ldr	w0, [x1,w0,uxtw #2]
	adr	x1, .Lrtx226
	add	x0, x1, w0, sxtw #2
	br	x0
.Lrtx226:
	.section	.rodata
	.align	0
	.align	2
.L226:
	.word	(.L225 - .Lrtx226) / 4
	.word	(.L227 - .Lrtx226) / 4
	.word	(.L228 - .Lrtx226) / 4
	.word	(.L229 - .Lrtx226) / 4
	.word	(.L230 - .Lrtx226) / 4
	.word	(.L231 - .Lrtx226) / 4
	.word	(.L232 - .Lrtx226) / 4
	.word	(.L233 - .Lrtx226) / 4
	.section	.text._ZN7IwTween6CTween9ValueType19SetFromCurrentValueEPvS2_b
.L225:
	.loc 4 401 0
	ldr	x0, [sp, 24]
	ldr	x0, [x0, 8]
	ldrb	w1, [x0]
	ldr	x0, [sp, 16]
	strb	w1, [x0]
	.loc 4 402 0
	b	.L223
.L227:
	.loc 4 404 0
	ldr	x0, [sp, 24]
	ldr	x0, [x0, 8]
	ldrsb	w1, [x0]
	ldr	x0, [sp, 16]
	strb	w1, [x0]
	.loc 4 405 0
	ldr	x0, [sp, 8]
	ldrsb	w0, [x0]
	uxtb	w1, w0
	ldrb	w0, [sp, 7]
	cmp	w0, wzr
	beq	.L235
	.loc 4 405 0 is_stmt 0 discriminator 1
	ldr	x0, [sp, 16]
	ldrsb	w0, [x0]
	uxtb	w0, w0
	b	.L236
.L235:
	.loc 4 405 0 discriminator 2
	mov	w0, 0
.L236:
	.loc 4 405 0 discriminator 4
	add	w0, w1, w0
	uxtb	w0, w0
	sxtb	w1, w0
	ldr	x0, [sp, 8]
	strb	w1, [x0]
	.loc 4 406 0 is_stmt 1 discriminator 4
	b	.L223
.L228:
	.loc 4 408 0
	ldr	x0, [sp, 24]
	ldr	x0, [x0, 8]
	ldrb	w1, [x0]
	ldr	x0, [sp, 16]
	strb	w1, [x0]
	.loc 4 409 0
	ldr	x0, [sp, 8]
	ldrb	w1, [x0]
	ldrb	w0, [sp, 7]
	cmp	w0, wzr
	beq	.L237
	.loc 4 409 0 is_stmt 0 discriminator 1
	ldr	x0, [sp, 16]
	ldrb	w0, [x0]
	b	.L238
.L237:
	.loc 4 409 0 discriminator 2
	mov	w0, 0
.L238:
	.loc 4 409 0 discriminator 4
	add	w0, w1, w0
	uxtb	w1, w0
	ldr	x0, [sp, 8]
	strb	w1, [x0]
	.loc 4 410 0 is_stmt 1 discriminator 4
	b	.L223
.L229:
	.loc 4 412 0
	ldr	x0, [sp, 24]
	ldr	x0, [x0, 8]
	ldrsh	w1, [x0]
	ldr	x0, [sp, 16]
	strh	w1, [x0]
	.loc 4 413 0
	ldr	x0, [sp, 8]
	ldrsh	w0, [x0]
	uxth	w1, w0
	ldrb	w0, [sp, 7]
	cmp	w0, wzr
	beq	.L239
	.loc 4 413 0 is_stmt 0 discriminator 1
	ldr	x0, [sp, 16]
	ldrsh	w0, [x0]
	uxth	w0, w0
	b	.L240
.L239:
	.loc 4 413 0 discriminator 2
	mov	w0, 0
.L240:
	.loc 4 413 0 discriminator 4
	add	w0, w1, w0
	uxth	w0, w0
	sxth	w1, w0
	ldr	x0, [sp, 8]
	strh	w1, [x0]
	.loc 4 414 0 is_stmt 1 discriminator 4
	b	.L223
.L230:
	.loc 4 416 0
	ldr	x0, [sp, 24]
	ldr	x0, [x0, 8]
	ldrh	w1, [x0]
	ldr	x0, [sp, 16]
	strh	w1, [x0]
	.loc 4 417 0
	ldr	x0, [sp, 8]
	ldrh	w1, [x0]
	ldrb	w0, [sp, 7]
	cmp	w0, wzr
	beq	.L241
	.loc 4 417 0 is_stmt 0 discriminator 1
	ldr	x0, [sp, 16]
	ldrh	w0, [x0]
	b	.L242
.L241:
	.loc 4 417 0 discriminator 2
	mov	w0, 0
.L242:
	.loc 4 417 0 discriminator 4
	add	w0, w1, w0
	uxth	w1, w0
	ldr	x0, [sp, 8]
	strh	w1, [x0]
	.loc 4 418 0 is_stmt 1 discriminator 4
	b	.L223
.L231:
	.loc 4 420 0
	ldr	x0, [sp, 24]
	ldr	x0, [x0, 8]
	ldr	w1, [x0]
	ldr	x0, [sp, 16]
	str	w1, [x0]
	.loc 4 421 0
	ldr	x0, [sp, 8]
	ldr	w1, [x0]
	ldrb	w0, [sp, 7]
	cmp	w0, wzr
	beq	.L243
	.loc 4 421 0 is_stmt 0 discriminator 1
	ldr	x0, [sp, 16]
	ldr	w0, [x0]
	b	.L244
.L243:
	.loc 4 421 0 discriminator 2
	mov	w0, 0
.L244:
	.loc 4 421 0 discriminator 4
	add	w1, w1, w0
	ldr	x0, [sp, 8]
	str	w1, [x0]
	.loc 4 422 0 is_stmt 1 discriminator 4
	b	.L223
.L232:
	.loc 4 424 0
	ldr	x0, [sp, 24]
	ldr	x0, [x0, 8]
	ldr	w1, [x0]
	ldr	x0, [sp, 16]
	str	w1, [x0]
	.loc 4 425 0
	ldr	x0, [sp, 8]
	ldr	w1, [x0]
	ldrb	w0, [sp, 7]
	cmp	w0, wzr
	beq	.L245
	.loc 4 425 0 is_stmt 0 discriminator 1
	ldr	x0, [sp, 16]
	ldr	w0, [x0]
	b	.L246
.L245:
	.loc 4 425 0 discriminator 2
	mov	w0, 0
.L246:
	.loc 4 425 0 discriminator 4
	add	w1, w1, w0
	ldr	x0, [sp, 8]
	str	w1, [x0]
	.loc 4 426 0 is_stmt 1 discriminator 4
	b	.L223
.L233:
	.loc 4 428 0
	ldr	x0, [sp, 24]
	ldr	x0, [x0, 8]
	ldr	w1, [x0]
	ldr	x0, [sp, 16]
	str	w1, [x0]
	.loc 4 429 0
	ldr	x0, [sp, 8]
	ldr	w0, [x0]
	ldrb	w1, [sp, 7]
	cmp	w1, wzr
	beq	.L247
	.loc 4 429 0 is_stmt 0 discriminator 1
	ldr	x1, [sp, 16]
	ldr	w1, [x1]
	b	.L248
.L247:
	.loc 4 429 0 discriminator 2
	ldr	w1, .LC73
.L248:
	.loc 4 429 0 discriminator 4
	fmov	s0, w0
	fmov	s1, w1
	fadd	s0, s0, s1
	fmov	w1, s0
	ldr	x0, [sp, 8]
	str	w1, [x0]
	.loc 4 430 0 is_stmt 1 discriminator 4
	b	.L223
.L249:
	.loc 4 433 0
	nop
.L223:
	.loc 4 435 0
	add	sp, sp, 32
.LCFI41:
	.cfi_def_cfa_offset 0
	ret
	.cfi_endproc
.LFE505:
	.size	_ZN7IwTween6CTween9ValueType19SetFromCurrentValueEPvS2_b, .-_ZN7IwTween6CTween9ValueType19SetFromCurrentValueEPvS2_b
	.align	2
.LC73:
	.word	0
	.section	.text._ZN7IwTween6CTween9ValueType13SetFromInterpEf,"ax",%progbits
	.align	2
	.global	_ZN7IwTween6CTween9ValueType13SetFromInterpEf
	.hidden	_ZN7IwTween6CTween9ValueType13SetFromInterpEf
	.type	_ZN7IwTween6CTween9ValueType13SetFromInterpEf, %function
_ZN7IwTween6CTween9ValueType13SetFromInterpEf:
.LFB506:
	.loc 4 438 0
	.cfi_startproc
	sub	sp, sp, #48
.LCFI42:
	.cfi_def_cfa_offset 48
	str	x0, [sp, 8]
	str	s0, [sp, 4]
.LBB46:
.LBB47:
	.loc 4 439 0
	ldr	x0, [sp, 8]
	ldr	w0, [x0]
	sub	w0, w0, #256
	cmp	w0, 7
	bhi	.L264
	adrp	x1, .L253
	add	x1, x1, :lo12:.L253
	ldr	w0, [x1,w0,uxtw #2]
	adr	x1, .Lrtx253
	add	x0, x1, w0, sxtw #2
	br	x0
.Lrtx253:
	.section	.rodata
	.align	0
	.align	2
.L253:
	.word	(.L252 - .Lrtx253) / 4
	.word	(.L254 - .Lrtx253) / 4
	.word	(.L255 - .Lrtx253) / 4
	.word	(.L256 - .Lrtx253) / 4
	.word	(.L257 - .Lrtx253) / 4
	.word	(.L258 - .Lrtx253) / 4
	.word	(.L259 - .Lrtx253) / 4
	.word	(.L260 - .Lrtx253) / 4
	.section	.text._ZN7IwTween6CTween9ValueType13SetFromInterpEf
.L252:
.LBB48:
	.loc 4 442 0
	ldr	x0, [sp, 8]
	ldr	x1, [x0, 8]
	ldr	w2, [sp, 4]
	ldr	w0, .LC74
	fmov	s0, w2
	fmov	s1, w0
	fcmp	s0, s1
	bne	.L261
	.loc 4 442 0 is_stmt 0 discriminator 1
	ldr	x0, [sp, 8]
	add	x0, x0, 16
	ldrb	w0, [x0]
	b	.L262
.L261:
	.loc 4 442 0 discriminator 2
	ldr	x0, [sp, 8]
	add	x0, x0, 20
	ldrb	w0, [x0]
.L262:
	.loc 4 442 0 discriminator 4
	strb	w0, [x1]
	.loc 4 443 0 is_stmt 1 discriminator 4
	b	.L250
.L254:
.LBB49:
	.loc 4 446 0
	ldr	x0, [sp, 8]
	add	x0, x0, 16
	ldrsb	w0, [x0]
	scvtf	s0, w0
	fmov	w1, s0
	ldr	x0, [sp, 8]
	add	x0, x0, 20
	ldrsb	w0, [x0]
	scvtf	s0, w0
	fmov	w0, s0
	fmov	s0, w1
	fmov	s1, w0
	fsub	s0, s0, s1
	fmov	w0, s0
	str	w0, [sp, 44]
	.loc 4 447 0
	ldr	x0, [sp, 8]
	ldr	x0, [x0, 8]
	ldr	x1, [sp, 8]
	add	x1, x1, 20
	ldrsb	w1, [x1]
	scvtf	s0, w1
	fmov	w2, s0
	ldr	w3, [sp, 4]
	ldr	w1, [sp, 44]
	fmov	s0, w3
	fmov	s1, w1
	fmul	s0, s0, s1
	fmov	w1, s0
	fmov	s0, w2
	fmov	s1, w1
	fadd	s0, s0, s1
	fmov	w1, s0
	fmov	s0, w1
	fcvtzs	w1, s0
	sxtb	w1, w1
	strb	w1, [x0]
.LBE49:
	.loc 4 449 0
	b	.L250
.L255:
.LBB50:
	.loc 4 452 0
	ldr	x0, [sp, 8]
	add	x0, x0, 16
	ldrb	w0, [x0]
	ucvtf	s0, w0
	fmov	w1, s0
	ldr	x0, [sp, 8]
	add	x0, x0, 20
	ldrb	w0, [x0]
	ucvtf	s0, w0
	fmov	w0, s0
	fmov	s0, w1
	fmov	s1, w0
	fsub	s0, s0, s1
	fmov	w0, s0
	str	w0, [sp, 40]
	.loc 4 453 0
	ldr	x0, [sp, 8]
	ldr	x0, [x0, 8]
	ldr	x1, [sp, 8]
	add	x1, x1, 20
	ldrb	w1, [x1]
	scvtf	s0, w1
	fmov	w2, s0
	ldr	w3, [sp, 4]
	ldr	w1, [sp, 40]
	fmov	s0, w3
	fmov	s1, w1
	fmul	s0, s0, s1
	fmov	w1, s0
	fmov	s0, w2
	fmov	s1, w1
	fadd	s0, s0, s1
	fmov	w1, s0
	fmov	s0, w1
	fcvtzu	w1, s0
	uxtb	w1, w1
	strb	w1, [x0]
.LBE50:
	.loc 4 455 0
	b	.L250
.L256:
.LBB51:
	.loc 4 458 0
	ldr	x0, [sp, 8]
	add	x0, x0, 16
	ldrsh	w0, [x0]
	scvtf	s0, w0
	fmov	w1, s0
	ldr	x0, [sp, 8]
	add	x0, x0, 20
	ldrsh	w0, [x0]
	scvtf	s0, w0
	fmov	w0, s0
	fmov	s0, w1
	fmov	s1, w0
	fsub	s0, s0, s1
	fmov	w0, s0
	str	w0, [sp, 36]
	.loc 4 459 0
	ldr	x0, [sp, 8]
	ldr	x0, [x0, 8]
	ldr	x1, [sp, 8]
	add	x1, x1, 20
	ldrsh	w1, [x1]
	scvtf	s0, w1
	fmov	w2, s0
	ldr	w3, [sp, 4]
	ldr	w1, [sp, 36]
	fmov	s0, w3
	fmov	s1, w1
	fmul	s0, s0, s1
	fmov	w1, s0
	fmov	s0, w2
	fmov	s1, w1
	fadd	s0, s0, s1
	fmov	w1, s0
	fmov	s0, w1
	fcvtzs	w1, s0
	sxth	w1, w1
	strh	w1, [x0]
.LBE51:
	.loc 4 461 0
	b	.L250
.L257:
.LBB52:
	.loc 4 464 0
	ldr	x0, [sp, 8]
	add	x0, x0, 16
	ldrh	w0, [x0]
	ucvtf	s0, w0
	fmov	w1, s0
	ldr	x0, [sp, 8]
	add	x0, x0, 20
	ldrh	w0, [x0]
	ucvtf	s0, w0
	fmov	w0, s0
	fmov	s0, w1
	fmov	s1, w0
	fsub	s0, s0, s1
	fmov	w0, s0
	str	w0, [sp, 32]
	.loc 4 465 0
	ldr	x0, [sp, 8]
	ldr	x0, [x0, 8]
	ldr	x1, [sp, 8]
	add	x1, x1, 20
	ldrh	w1, [x1]
	scvtf	s0, w1
	fmov	w2, s0
	ldr	w3, [sp, 4]
	ldr	w1, [sp, 32]
	fmov	s0, w3
	fmov	s1, w1
	fmul	s0, s0, s1
	fmov	w1, s0
	fmov	s0, w2
	fmov	s1, w1
	fadd	s0, s0, s1
	fmov	w1, s0
	fmov	s0, w1
	fcvtzu	w1, s0
	uxth	w1, w1
	strh	w1, [x0]
.LBE52:
	.loc 4 467 0
	b	.L250
.L258:
.LBB53:
	.loc 4 470 0
	ldr	x0, [sp, 8]
	ldr	w1, [x0, 16]
	ldr	x0, [sp, 8]
	ldr	w0, [x0, 20]
	sub	w0, w1, w0
	str	w0, [sp, 28]
	.loc 4 471 0
	ldr	x0, [sp, 8]
	ldr	x0, [x0, 8]
	ldr	x1, [sp, 8]
	ldr	w2, [x1, 20]
	ldr	w1, [sp, 28]
	scvtf	s0, w1
	fmov	w3, s0
	ldr	w1, [sp, 4]
	fmov	s0, w3
	fmov	s1, w1
	fmul	s0, s0, s1
	fmov	w1, s0
	fmov	s0, w1
	fcvtzs	w1, s0
	add	w1, w2, w1
	str	w1, [x0]
.LBE53:
	.loc 4 473 0
	b	.L250
.L259:
.LBB54:
	.loc 4 476 0
	ldr	x0, [sp, 8]
	add	x0, x0, 16
	ldr	w1, [x0]
	ldr	x0, [sp, 8]
	add	x0, x0, 20
	ldr	w0, [x0]
	sub	w0, w1, w0
	str	w0, [sp, 24]
	.loc 4 477 0
	ldr	x0, [sp, 8]
	ldr	x0, [x0, 8]
	ldr	x1, [sp, 8]
	add	x1, x1, 20
	ldr	w1, [x1]
	ucvtf	s0, w1
	fmov	w2, s0
	ldr	w1, [sp, 24]
	scvtf	s0, w1
	fmov	w3, s0
	ldr	w1, [sp, 4]
	fmov	s0, w3
	fmov	s1, w1
	fmul	s0, s0, s1
	fmov	w1, s0
	fmov	s0, w2
	fmov	s1, w1
	fadd	s0, s0, s1
	fmov	w1, s0
	fmov	s0, w1
	fcvtzu	w1, s0
	str	w1, [x0]
.LBE54:
	.loc 4 479 0
	b	.L250
.L260:
	.loc 4 481 0
	ldr	x0, [sp, 8]
	ldr	x0, [x0, 8]
	ldr	x1, [sp, 8]
	add	x1, x1, 20
	ldr	w2, [x1]
	ldr	x1, [sp, 8]
	add	x1, x1, 16
	ldr	w3, [x1]
	ldr	x1, [sp, 8]
	add	x1, x1, 20
	ldr	w1, [x1]
	fmov	s0, w3
	fmov	s1, w1
	fsub	s0, s0, s1
	fmov	w3, s0
	ldr	w1, [sp, 4]
	fmov	s0, w3
	fmov	s1, w1
	fmul	s0, s0, s1
	fmov	w1, s0
	fmov	s0, w2
	fmov	s1, w1
	fadd	s0, s0, s1
	fmov	w1, s0
	str	w1, [x0]
	.loc 4 482 0
	b	.L250
.L264:
	.loc 4 485 0
	nop
.L250:
.LBE48:
.LBE47:
.LBE46:
	.loc 4 487 0
	add	sp, sp, 48
.LCFI43:
	.cfi_def_cfa_offset 0
	ret
	.cfi_endproc
.LFE506:
	.size	_ZN7IwTween6CTween9ValueType13SetFromInterpEf, .-_ZN7IwTween6CTween9ValueType13SetFromInterpEf
	.align	2
.LC74:
	.word	1065353216
	.section	.text._ZN7IwTween6CTween4SpecC2Ev,"ax",%progbits
	.align	2
	.global	_ZN7IwTween6CTween4SpecC2Ev
	.hidden	_ZN7IwTween6CTween4SpecC2Ev
	.type	_ZN7IwTween6CTween4SpecC2Ev, %function
_ZN7IwTween6CTween4SpecC2Ev:
.LFB508:
	.loc 4 492 0
	.cfi_startproc
	sub	sp, sp, #16
.LCFI44:
	.cfi_def_cfa_offset 16
	str	x0, [sp, 8]
.LBB55:
	.loc 4 495 0
	ldr	x0, [sp, 8]
	ldr	w1, .LC75
	str	w1, [x0]
	.loc 4 496 0
	ldr	x0, [sp, 8]
	ldr	w1, .LC76
	str	w1, [x0, 4]
	.loc 4 497 0
	ldr	x0, [sp, 8]
	strb	wzr, [x0, 8]
	.loc 4 498 0
	ldr	x0, [sp, 8]
	mov	w1, 265
	str	w1, [x0, 12]
	.loc 4 499 0
	ldr	x0, [sp, 8]
	adrp	x1, _ZN7IwTween4Ease6linearEff
	add	x1, x1, :lo12:_ZN7IwTween4Ease6linearEff
	str	x1, [x0, 16]
	.loc 4 500 0
	ldr	x0, [sp, 8]
	ldr	w1, .LC76
	str	w1, [x0, 24]
	.loc 4 501 0
	ldr	x0, [sp, 8]
	str	xzr, [x0, 32]
	.loc 4 502 0
	ldr	x0, [sp, 8]
	str	xzr, [x0, 40]
.LBE55:
	.loc 4 503 0
	add	sp, sp, 16
.LCFI45:
	.cfi_def_cfa_offset 0
	ret
	.cfi_endproc
.LFE508:
	.size	_ZN7IwTween6CTween4SpecC2Ev, .-_ZN7IwTween6CTween4SpecC2Ev
	.align	2
.LC75:
	.word	1065353216
	.align	2
.LC76:
	.word	0
	.global	_ZN7IwTween6CTween4SpecC1Ev
	.hidden	_ZN7IwTween6CTween4SpecC1Ev
_ZN7IwTween6CTween4SpecC1Ev = _ZN7IwTween6CTween4SpecC2Ev
	.section	.text._ZN7IwTween6CTween6CancelEv,"ax",%progbits
	.align	2
	.global	_ZN7IwTween6CTween6CancelEv
	.hidden	_ZN7IwTween6CTween6CancelEv
	.type	_ZN7IwTween6CTween6CancelEv, %function
_ZN7IwTween6CTween6CancelEv:
.LFB510:
	.loc 4 509 0
	.cfi_startproc
	str	x30, [sp, -32]!
.LCFI46:
	.cfi_def_cfa_offset 32
	.cfi_offset 30, -32
	str	x0, [sp, 24]
	.loc 4 510 0
	ldr	x0, [sp, 24]
	ldr	x0, [x0, 88]
	ldr	x1, [sp, 24]
	bl	_ZN4_STL6vectorIN7IwTween6CTweenENS_9allocatorIS2_EEE5eraseEPS2_
	.loc 4 511 0
	ldr	x30, [sp], 32
	.cfi_restore 30
	ret
	.cfi_endproc
.LFE510:
	.size	_ZN7IwTween6CTween6CancelEv, .-_ZN7IwTween6CTween6CancelEv
	.section	.text._ZN7IwTween6CTween6UpdateEf,"ax",%progbits
	.align	2
	.global	_ZN7IwTween6CTween6UpdateEf
	.hidden	_ZN7IwTween6CTween6UpdateEf
	.type	_ZN7IwTween6CTween6UpdateEf, %function
_ZN7IwTween6CTween6UpdateEf:
.LFB511:
	.loc 4 514 0
	.cfi_startproc
	str	x30, [sp, -96]!
.LCFI47:
	.cfi_def_cfa_offset 96
	.cfi_offset 30, -96
	str	x0, [sp, 24]
	str	s0, [sp, 20]
.LBB56:
	.loc 4 519 0
	ldr	x0, [sp, 24]
	ldrb	w0, [x0, 53]
	cmp	w0, wzr
	beq	.L268
	.loc 4 520 0
	mov	w0, 1
	b	.L290
.L268:
	.loc 4 523 0
	ldr	x0, [sp, 24]
	ldr	w1, [x0, 48]
	ldr	w0, [sp, 20]
	fmov	s0, w1
	fmov	s1, w0
	fadd	s0, s0, s1
	fmov	w1, s0
	ldr	x0, [sp, 24]
	str	w1, [x0, 48]
	.loc 4 524 0
	ldr	x0, [sp, 24]
	ldr	w1, [x0, 48]
	ldr	x0, [sp, 24]
	ldr	w0, [x0, 4]
	fmov	s0, w1
	fmov	s1, w0
	fcmpe	s0, s1
	bpl	.L294
	.loc 4 527 0
	mov	w0, 0
	b	.L290
.L294:
	.loc 4 532 0
	ldr	x0, [sp, 24]
	ldr	w1, [x0, 48]
	ldr	x0, [sp, 24]
	ldr	w2, [x0]
	ldr	x0, [sp, 24]
	ldr	w0, [x0, 56]
	scvtf	s0, w0
	fmov	w0, s0
	fmov	s0, w2
	fmov	s1, w0
	fmul	s0, s0, s1
	fmov	w0, s0
	fmov	s0, w1
	fmov	s1, w0
	fsub	s0, s0, s1
	fmov	w1, s0
	ldr	x0, [sp, 24]
	ldr	w0, [x0, 4]
	fmov	s0, w1
	fmov	s1, w0
	fsub	s0, s0, s1
	fmov	w1, s0
	ldr	x0, [sp, 24]
	ldr	w0, [x0]
	fmov	s0, w1
	fmov	s1, w0
	fdiv	s0, s0, s1
	fmov	w0, s0
	str	w0, [sp, 40]
	.loc 4 533 0
	strb	wzr, [sp, 95]
	.loc 4 534 0
	ldr	x0, [sp, 24]
	ldr	w0, [x0, 12]
	cmp	w0, 265
	beq	.L272
	.loc 4 536 0
	ldr	w1, [sp, 40]
	ldr	w0, .LC77
	fmov	s0, w1
	fmov	s1, w0
	fcmpe	s0, s1
	blt	.L273
	.loc 4 538 0
	mov	w0, 1
	strb	w0, [sp, 95]
	.loc 4 539 0
	ldr	w1, [sp, 40]
	ldr	w0, [sp, 40]
	fmov	s0, w0
	fcvtzs	w0, s0
	scvtf	s0, w0
	fmov	w0, s0
	fmov	s0, w1
	fmov	s1, w0
	fsub	s0, s0, s1
	fmov	w0, s0
	str	w0, [sp, 40]
	.loc 4 540 0
	ldr	x0, [sp, 24]
	ldr	w0, [x0, 56]
	add	w1, w0, 1
	ldr	x0, [sp, 24]
	str	w1, [x0, 56]
	b	.L273
.L272:
	.loc 4 544 0
	ldr	w0, .LC77
	str	w0, [sp, 44]
	add	x1, sp, 44
	add	x0, sp, 40
	bl	_ZN4_STL3minIfEERKT_S3_S3_
	ldr	w0, [x0]
	str	w0, [sp, 40]
.L273:
	.loc 4 552 0
	ldr	x0, [sp, 24]
	ldr	x0, [x0, 16]
	ldr	w2, [sp, 40]
	ldr	x1, [sp, 24]
	ldr	w1, [x1, 24]
	fmov	s1, w1
	fmov	s0, w2
	blr	x0
	str	s0, [sp, 88]
	.loc 4 554 0
	ldr	x0, [sp, 24]
	ldr	w0, [x0, 12]
	cmp	w0, 267
	bne	.L275
	.loc 4 556 0
	ldr	x0, [sp, 24]
	ldr	w0, [x0, 56]
	and	w0, w0, 1
	cmp	w0, wzr
	beq	.L275
	.loc 4 557 0
	ldr	w1, .LC77
	ldr	w0, [sp, 88]
	fmov	s0, w1
	fmov	s1, w0
	fsub	s0, s0, s1
	fmov	w0, s0
	str	w0, [sp, 88]
.L275:
.LBB57:
	.loc 4 560 0
	ldr	x0, [sp, 24]
	ldrb	w0, [x0, 54]
	eor	w0, w0, 1
	uxtb	w0, w0
	cmp	w0, wzr
	beq	.L276
.LBB58:
	.loc 4 563 0
	ldr	x0, [sp, 24]
	mov	w1, 1
	strb	w1, [x0, 54]
	.loc 4 566 0
	ldr	x0, [sp, 24]
	ldr	x0, [x0, 32]
	cmp	x0, xzr
	beq	.L277
	.loc 4 567 0
	ldr	x0, [sp, 24]
	ldr	x1, [x0, 32]
	ldr	x0, [sp, 24]
	blr	x1
.L277:
	.loc 4 574 0
	ldr	x0, [sp, 24]
	add	x0, x0, 64
	bl	_ZN4_STL6vectorIN7IwTween6CTween9ValueTypeENS_9allocatorIS3_EEE5beginEv
	str	x0, [sp, 80]
	.loc 4 575 0
	ldr	x0, [sp, 24]
	add	x0, x0, 64
	bl	_ZN4_STL6vectorIN7IwTween6CTween9ValueTypeENS_9allocatorIS3_EEE3endEv
	str	x0, [sp, 64]
.LBB59:
	.loc 4 576 0
	ldr	x0, [sp, 24]
	ldrb	w0, [x0, 52]
	cmp	w0, wzr
	beq	.L278
	.loc 4 579 0
	b	.L279
.L280:
	.loc 4 581 0 discriminator 2
	ldr	x0, [sp, 80]
	add	x1, x0, 20
	ldr	x0, [sp, 80]
	add	x2, x0, 16
	ldr	x0, [sp, 24]
	ldrb	w0, [x0, 8]
	mov	w3, w0
	ldr	x0, [sp, 80]
	bl	_ZN7IwTween6CTween9ValueType19SetFromCurrentValueEPvS2_b
	.loc 4 579 0 discriminator 2
	ldr	x0, [sp, 80]
	add	x0, x0, 24
	str	x0, [sp, 80]
.L279:
	.loc 4 579 0 is_stmt 0 discriminator 1
	ldr	x1, [sp, 80]
	ldr	x0, [sp, 64]
	cmp	x1, x0
	bne	.L280
.LBE59:
.LBE58:
	b	.L276
.L278:
.LBB64:
.LBB63:
.LBB60:
.LBB61:
	.loc 4 587 0 is_stmt 1
	b	.L282
.L283:
.LBB62:
	.loc 4 589 0 discriminator 2
	ldr	x0, [sp, 80]
	add	x1, x0, 20
	ldr	x0, [sp, 80]
	add	x2, x0, 16
	ldr	x0, [sp, 24]
	ldrb	w0, [x0, 8]
	mov	w3, w0
	ldr	x0, [sp, 80]
	bl	_ZN7IwTween6CTween9ValueType19SetFromCurrentValueEPvS2_b
	.loc 4 592 0 discriminator 2
	ldr	x0, [sp, 80]
	ldr	w0, [x0, 20]
	str	w0, [sp, 60]
	.loc 4 593 0 discriminator 2
	ldr	x0, [sp, 80]
	ldr	w1, [x0, 16]
	ldr	x0, [sp, 80]
	str	w1, [x0, 20]
	.loc 4 594 0 discriminator 2
	ldr	x0, [sp, 80]
	ldr	w1, [sp, 60]
	str	w1, [x0, 16]
.LBE62:
	.loc 4 587 0 discriminator 2
	ldr	x0, [sp, 80]
	add	x0, x0, 24
	str	x0, [sp, 80]
.L282:
	.loc 4 587 0 is_stmt 0 discriminator 1
	ldr	x1, [sp, 80]
	ldr	x0, [sp, 64]
	cmp	x1, x0
	bne	.L283
.L276:
.LBE61:
.LBE60:
.LBE63:
.LBE64:
.LBE57:
	.loc 4 600 0 is_stmt 1
	ldr	x0, [sp, 24]
	add	x0, x0, 64
	bl	_ZN4_STL6vectorIN7IwTween6CTween9ValueTypeENS_9allocatorIS3_EEE5beginEv
	str	x0, [sp, 72]
	.loc 4 601 0
	ldr	x0, [sp, 24]
	add	x0, x0, 64
	bl	_ZN4_STL6vectorIN7IwTween6CTween9ValueTypeENS_9allocatorIS3_EEE3endEv
	str	x0, [sp, 48]
	.loc 4 602 0
	b	.L284
.L285:
	.loc 4 605 0 discriminator 2
	ldr	s0, [sp, 88]
	ldr	x0, [sp, 72]
	bl	_ZN7IwTween6CTween9ValueType13SetFromInterpEf
	.loc 4 602 0 discriminator 2
	ldr	x0, [sp, 72]
	add	x0, x0, 24
	str	x0, [sp, 72]
.L284:
	.loc 4 602 0 is_stmt 0 discriminator 1
	ldr	x1, [sp, 72]
	ldr	x0, [sp, 48]
	cmp	x1, x0
	bne	.L285
	.loc 4 608 0 is_stmt 1
	ldr	x0, [sp, 24]
	ldr	w0, [x0, 12]
	cmp	w0, 265
	beq	.L286
	.loc 4 610 0
	ldrb	w0, [sp, 95]
	cmp	w0, wzr
	beq	.L287
	.loc 4 613 0
	ldr	x0, [sp, 24]
	ldr	x0, [x0, 40]
	cmp	x0, xzr
	beq	.L287
	.loc 4 614 0
	ldr	x0, [sp, 24]
	ldr	x1, [x0, 40]
	ldr	x0, [sp, 24]
	blr	x1
	b	.L287
.L286:
	.loc 4 619 0
	ldr	w1, [sp, 40]
	ldr	w0, .LC77
	fmov	s0, w1
	fmov	s1, w0
	fcmpe	s0, s1
	blt	.L287
	.loc 4 622 0
	ldr	x0, [sp, 24]
	mov	w1, 1
	strb	w1, [x0, 53]
	.loc 4 623 0
	ldr	x0, [sp, 24]
	ldr	x0, [x0, 40]
	cmp	x0, xzr
	beq	.L289
	.loc 4 624 0
	ldr	x0, [sp, 24]
	ldr	x1, [x0, 40]
	ldr	x0, [sp, 24]
	blr	x1
.L289:
	.loc 4 625 0
	mov	w0, 1
	b	.L290
.L287:
	.loc 4 633 0
	mov	w0, 0
.L290:
.LBE56:
	.loc 4 634 0 discriminator 3
	ldr	x30, [sp], 96
	.cfi_restore 30
	ret
	.cfi_endproc
.LFE511:
	.size	_ZN7IwTween6CTween6UpdateEf, .-_ZN7IwTween6CTween6UpdateEf
	.align	2
.LC77:
	.word	1065353216
	.section	.text._ZN4_STL9allocatorIN7IwTween6CTween9ValueTypeEEC2Ev,"axG",%progbits,_ZN4_STL9allocatorIN7IwTween6CTween9ValueTypeEEC5Ev,comdat
	.align	2
	.weak	_ZN4_STL9allocatorIN7IwTween6CTween9ValueTypeEEC2Ev
	.hidden	_ZN4_STL9allocatorIN7IwTween6CTween9ValueTypeEEC2Ev
	.type	_ZN4_STL9allocatorIN7IwTween6CTween9ValueTypeEEC2Ev, %function
_ZN4_STL9allocatorIN7IwTween6CTween9ValueTypeEEC2Ev:
.LFB515:
	.file 5 "e:/7.10/s3e/h/std/c++/stl/_alloc.h"
	.loc 5 345 0
	.cfi_startproc
	sub	sp, sp, #16
.LCFI48:
	.cfi_def_cfa_offset 16
	str	x0, [sp, 8]
	.loc 5 345 0
	add	sp, sp, 16
.LCFI49:
	.cfi_def_cfa_offset 0
	ret
	.cfi_endproc
.LFE515:
	.size	_ZN4_STL9allocatorIN7IwTween6CTween9ValueTypeEEC2Ev, .-_ZN4_STL9allocatorIN7IwTween6CTween9ValueTypeEEC2Ev
	.weak	_ZN4_STL9allocatorIN7IwTween6CTween9ValueTypeEEC1Ev
	.hidden	_ZN4_STL9allocatorIN7IwTween6CTween9ValueTypeEEC1Ev
_ZN4_STL9allocatorIN7IwTween6CTween9ValueTypeEEC1Ev = _ZN4_STL9allocatorIN7IwTween6CTween9ValueTypeEEC2Ev
	.section	.text._ZN4_STL9allocatorIN7IwTween6CTween9ValueTypeEED2Ev,"axG",%progbits,_ZN4_STL9allocatorIN7IwTween6CTween9ValueTypeEED5Ev,comdat
	.align	2
	.weak	_ZN4_STL9allocatorIN7IwTween6CTween9ValueTypeEED2Ev
	.hidden	_ZN4_STL9allocatorIN7IwTween6CTween9ValueTypeEED2Ev
	.type	_ZN4_STL9allocatorIN7IwTween6CTween9ValueTypeEED2Ev, %function
_ZN4_STL9allocatorIN7IwTween6CTween9ValueTypeEED2Ev:
.LFB518:
	.loc 5 350 0
	.cfi_startproc
	sub	sp, sp, #16
.LCFI50:
	.cfi_def_cfa_offset 16
	str	x0, [sp, 8]
	.loc 5 350 0
	add	sp, sp, 16
.LCFI51:
	.cfi_def_cfa_offset 0
	ret
	.cfi_endproc
.LFE518:
	.size	_ZN4_STL9allocatorIN7IwTween6CTween9ValueTypeEED2Ev, .-_ZN4_STL9allocatorIN7IwTween6CTween9ValueTypeEED2Ev
	.weak	_ZN4_STL9allocatorIN7IwTween6CTween9ValueTypeEED1Ev
	.hidden	_ZN4_STL9allocatorIN7IwTween6CTween9ValueTypeEED1Ev
_ZN4_STL9allocatorIN7IwTween6CTween9ValueTypeEED1Ev = _ZN4_STL9allocatorIN7IwTween6CTween9ValueTypeEED2Ev
	.section	.text._ZN4_STL6vectorIN7IwTween6CTween9ValueTypeENS_9allocatorIS3_EEEC2ERKS5_,"axG",%progbits,_ZN4_STL6vectorIN7IwTween6CTween9ValueTypeENS_9allocatorIS3_EEEC5ERKS5_,comdat
	.align	2
	.weak	_ZN4_STL6vectorIN7IwTween6CTween9ValueTypeENS_9allocatorIS3_EEEC2ERKS5_
	.hidden	_ZN4_STL6vectorIN7IwTween6CTween9ValueTypeENS_9allocatorIS3_EEEC2ERKS5_
	.type	_ZN4_STL6vectorIN7IwTween6CTween9ValueTypeENS_9allocatorIS3_EEEC2ERKS5_, %function
_ZN4_STL6vectorIN7IwTween6CTween9ValueTypeENS_9allocatorIS3_EEEC2ERKS5_:
.LFB521:
	.file 6 "e:/7.10/s3e/h/std/c++/stl/_vector.h"
	.loc 6 198 0
	.cfi_startproc
	str	x30, [sp, -32]!
.LCFI52:
	.cfi_def_cfa_offset 32
	.cfi_offset 30, -32
	str	x0, [sp, 24]
	str	x1, [sp, 16]
.LBB65:
	.loc 6 199 0
	ldr	x0, [sp, 24]
	ldr	x1, [sp, 16]
	bl	_ZN4_STL12_Vector_baseIN7IwTween6CTween9ValueTypeENS_9allocatorIS3_EEEC2ERKS5_
.LBE65:
	ldr	x30, [sp], 32
	.cfi_restore 30
	ret
	.cfi_endproc
.LFE521:
	.size	_ZN4_STL6vectorIN7IwTween6CTween9ValueTypeENS_9allocatorIS3_EEEC2ERKS5_, .-_ZN4_STL6vectorIN7IwTween6CTween9ValueTypeENS_9allocatorIS3_EEEC2ERKS5_
	.weak	_ZN4_STL6vectorIN7IwTween6CTween9ValueTypeENS_9allocatorIS3_EEEC1ERKS5_
	.hidden	_ZN4_STL6vectorIN7IwTween6CTween9ValueTypeENS_9allocatorIS3_EEEC1ERKS5_
_ZN4_STL6vectorIN7IwTween6CTween9ValueTypeENS_9allocatorIS3_EEEC1ERKS5_ = _ZN4_STL6vectorIN7IwTween6CTween9ValueTypeENS_9allocatorIS3_EEEC2ERKS5_
	.section	.text._ZN4_STL6vectorIN7IwTween6CTween9ValueTypeENS_9allocatorIS3_EEED2Ev,"axG",%progbits,_ZN4_STL6vectorIN7IwTween6CTween9ValueTypeENS_9allocatorIS3_EEED5Ev,comdat
	.align	2
	.weak	_ZN4_STL6vectorIN7IwTween6CTween9ValueTypeENS_9allocatorIS3_EEED2Ev
	.hidden	_ZN4_STL6vectorIN7IwTween6CTween9ValueTypeENS_9allocatorIS3_EEED2Ev
	.type	_ZN4_STL6vectorIN7IwTween6CTween9ValueTypeENS_9allocatorIS3_EEED2Ev, %function
_ZN4_STL6vectorIN7IwTween6CTween9ValueTypeENS_9allocatorIS3_EEED2Ev:
.LFB524:
	.loc 6 258 0
	.cfi_startproc
	str	x30, [sp, -32]!
.LCFI53:
	.cfi_def_cfa_offset 32
	.cfi_offset 30, -32
	str	x0, [sp, 24]
.LBB66:
	.loc 6 258 0
	ldr	x0, [sp, 24]
	ldr	x2, [x0]
	ldr	x0, [sp, 24]
	ldr	x0, [x0, 8]
	mov	x1, x0
	mov	x0, x2
	bl	_ZN4_STL8_DestroyIPN7IwTween6CTween9ValueTypeEEEvT_S5_
	ldr	x0, [sp, 24]
	bl	_ZN4_STL12_Vector_baseIN7IwTween6CTween9ValueTypeENS_9allocatorIS3_EEED2Ev
.LBE66:
	ldr	x30, [sp], 32
	.cfi_restore 30
	ret
	.cfi_endproc
.LFE524:
	.size	_ZN4_STL6vectorIN7IwTween6CTween9ValueTypeENS_9allocatorIS3_EEED2Ev, .-_ZN4_STL6vectorIN7IwTween6CTween9ValueTypeENS_9allocatorIS3_EEED2Ev
	.weak	_ZN4_STL6vectorIN7IwTween6CTween9ValueTypeENS_9allocatorIS3_EEED1Ev
	.hidden	_ZN4_STL6vectorIN7IwTween6CTween9ValueTypeENS_9allocatorIS3_EEED1Ev
_ZN4_STL6vectorIN7IwTween6CTween9ValueTypeENS_9allocatorIS3_EEED1Ev = _ZN4_STL6vectorIN7IwTween6CTween9ValueTypeENS_9allocatorIS3_EEED2Ev
	.section	.text._ZNK4_STL6vectorIN7IwTween6CTweenENS_9allocatorIS2_EEE4sizeEv,"axG",%progbits,_ZNK4_STL6vectorIN7IwTween6CTweenENS_9allocatorIS2_EEE4sizeEv,comdat
	.align	2
	.weak	_ZNK4_STL6vectorIN7IwTween6CTweenENS_9allocatorIS2_EEE4sizeEv
	.hidden	_ZNK4_STL6vectorIN7IwTween6CTweenENS_9allocatorIS2_EEE4sizeEv
	.type	_ZNK4_STL6vectorIN7IwTween6CTweenENS_9allocatorIS2_EEE4sizeEv, %function
_ZNK4_STL6vectorIN7IwTween6CTweenENS_9allocatorIS2_EEE4sizeEv:
.LFB538:
	.loc 6 182 0
	.cfi_startproc
	sub	sp, sp, #16
.LCFI54:
	.cfi_def_cfa_offset 16
	str	x0, [sp, 8]
	.loc 6 182 0
	ldr	x0, [sp, 8]
	ldr	x0, [x0, 8]
	mov	x1, x0
	ldr	x0, [sp, 8]
	ldr	x0, [x0]
	sub	x0, x1, x0
	asr	x1, x0, 5
	mov	x0, -6148914691236517206
	add	x0, x0, 1
	mul	x0, x1, x0
	add	sp, sp, 16
.LCFI55:
	.cfi_def_cfa_offset 0
	ret
	.cfi_endproc
.LFE538:
	.size	_ZNK4_STL6vectorIN7IwTween6CTweenENS_9allocatorIS2_EEE4sizeEv, .-_ZNK4_STL6vectorIN7IwTween6CTweenENS_9allocatorIS2_EEE4sizeEv
	.section	.text._ZN4_STL6vectorIN7IwTween6CTweenENS_9allocatorIS2_EEE9push_backERKS2_,"axG",%progbits,_ZN4_STL6vectorIN7IwTween6CTweenENS_9allocatorIS2_EEE9push_backERKS2_,comdat
	.align	2
	.weak	_ZN4_STL6vectorIN7IwTween6CTweenENS_9allocatorIS2_EEE9push_backERKS2_
	.hidden	_ZN4_STL6vectorIN7IwTween6CTweenENS_9allocatorIS2_EEE9push_backERKS2_
	.type	_ZN4_STL6vectorIN7IwTween6CTweenENS_9allocatorIS2_EEE9push_backERKS2_, %function
_ZN4_STL6vectorIN7IwTween6CTweenENS_9allocatorIS2_EEE9push_backERKS2_:
.LFB540:
	.loc 6 331 0
	.cfi_startproc
	str	x30, [sp, -48]!
.LCFI56:
	.cfi_def_cfa_offset 48
	.cfi_offset 30, -48
	str	x0, [sp, 24]
	str	x1, [sp, 16]
	.loc 6 332 0
	ldr	x0, [sp, 24]
	ldr	x1, [x0, 8]
	ldr	x0, [sp, 24]
	ldr	x0, [x0, 16]
	cmp	x1, x0
	beq	.L304
	.loc 6 333 0
	ldr	x0, [sp, 24]
	ldr	x0, [x0, 8]
	ldr	x1, [sp, 16]
	bl	_ZN4_STL10_ConstructIN7IwTween6CTweenES2_EEvPT_RKT0_
	.loc 6 334 0
	ldr	x0, [sp, 24]
	ldr	x0, [x0, 8]
	add	x1, x0, 96
	ldr	x0, [sp, 24]
	str	x1, [x0, 8]
	b	.L303
.L304:
	.loc 6 337 0
	ldr	x0, [sp, 24]
	ldr	x0, [x0, 8]
	add	x1, sp, 40
	mov	w5, 1
	mov	x4, 1
	mov	x3, x1
	ldr	x2, [sp, 16]
	mov	x1, x0
	ldr	x0, [sp, 24]
	bl	_ZN4_STL6vectorIN7IwTween6CTweenENS_9allocatorIS2_EEE18_M_insert_overflowEPS2_RKS2_RKNS_12__false_typeEmb
.L303:
	.loc 6 338 0
	ldr	x30, [sp], 48
	.cfi_restore 30
	ret
	.cfi_endproc
.LFE540:
	.size	_ZN4_STL6vectorIN7IwTween6CTweenENS_9allocatorIS2_EEE9push_backERKS2_, .-_ZN4_STL6vectorIN7IwTween6CTweenENS_9allocatorIS2_EEE9push_backERKS2_
	.section	.text._ZN4_STL6vectorIN7IwTween6CTweenENS_9allocatorIS2_EEEixEm,"axG",%progbits,_ZN4_STL6vectorIN7IwTween6CTweenENS_9allocatorIS2_EEEixEm,comdat
	.align	2
	.weak	_ZN4_STL6vectorIN7IwTween6CTweenENS_9allocatorIS2_EEEixEm
	.hidden	_ZN4_STL6vectorIN7IwTween6CTweenENS_9allocatorIS2_EEEixEm
	.type	_ZN4_STL6vectorIN7IwTween6CTweenENS_9allocatorIS2_EEEixEm, %function
_ZN4_STL6vectorIN7IwTween6CTweenENS_9allocatorIS2_EEEixEm:
.LFB541:
	.loc 6 187 0
	.cfi_startproc
	str	x30, [sp, -32]!
.LCFI57:
	.cfi_def_cfa_offset 32
	.cfi_offset 30, -32
	str	x0, [sp, 24]
	str	x1, [sp, 16]
	.loc 6 187 0
	ldr	x0, [sp, 24]
	bl	_ZN4_STL6vectorIN7IwTween6CTweenENS_9allocatorIS2_EEE5beginEv
	mov	x2, x0
	ldr	x1, [sp, 16]
	mov	x0, x1
	lsl	x0, x0, 2
	sub	x0, x0, x1
	lsl	x0, x0, 5
	add	x0, x2, x0
	ldr	x30, [sp], 32
	.cfi_restore 30
	ret
	.cfi_endproc
.LFE541:
	.size	_ZN4_STL6vectorIN7IwTween6CTweenENS_9allocatorIS2_EEEixEm, .-_ZN4_STL6vectorIN7IwTween6CTweenENS_9allocatorIS2_EEEixEm
	.section	.text._ZN4_STL6vectorIN7IwTween6CTween9ValueTypeENS_9allocatorIS3_EEE9push_backERKS3_,"axG",%progbits,_ZN4_STL6vectorIN7IwTween6CTween9ValueTypeENS_9allocatorIS3_EEE9push_backERKS3_,comdat
	.align	2
	.weak	_ZN4_STL6vectorIN7IwTween6CTween9ValueTypeENS_9allocatorIS3_EEE9push_backERKS3_
	.hidden	_ZN4_STL6vectorIN7IwTween6CTween9ValueTypeENS_9allocatorIS3_EEE9push_backERKS3_
	.type	_ZN4_STL6vectorIN7IwTween6CTween9ValueTypeENS_9allocatorIS3_EEE9push_backERKS3_, %function
_ZN4_STL6vectorIN7IwTween6CTween9ValueTypeENS_9allocatorIS3_EEE9push_backERKS3_:
.LFB542:
	.loc 6 331 0
	.cfi_startproc
	str	x30, [sp, -48]!
.LCFI58:
	.cfi_def_cfa_offset 48
	.cfi_offset 30, -48
	str	x0, [sp, 24]
	str	x1, [sp, 16]
	.loc 6 332 0
	ldr	x0, [sp, 24]
	ldr	x1, [x0, 8]
	ldr	x0, [sp, 24]
	ldr	x0, [x0, 16]
	cmp	x1, x0
	beq	.L309
	.loc 6 333 0
	ldr	x0, [sp, 24]
	ldr	x0, [x0, 8]
	ldr	x1, [sp, 16]
	bl	_ZN4_STL10_ConstructIN7IwTween6CTween9ValueTypeES3_EEvPT_RKT0_
	.loc 6 334 0
	ldr	x0, [sp, 24]
	ldr	x0, [x0, 8]
	add	x1, x0, 24
	ldr	x0, [sp, 24]
	str	x1, [x0, 8]
	b	.L308
.L309:
	.loc 6 337 0
	ldr	x0, [sp, 24]
	ldr	x0, [x0, 8]
	add	x1, sp, 40
	mov	w5, 1
	mov	x4, 1
	mov	x3, x1
	ldr	x2, [sp, 16]
	mov	x1, x0
	ldr	x0, [sp, 24]
	bl	_ZN4_STL6vectorIN7IwTween6CTween9ValueTypeENS_9allocatorIS3_EEE18_M_insert_overflowEPS3_RKS3_RKNS_12__false_typeEmb
.L308:
	.loc 6 338 0
	ldr	x30, [sp], 48
	.cfi_restore 30
	ret
	.cfi_endproc
.LFE542:
	.size	_ZN4_STL6vectorIN7IwTween6CTween9ValueTypeENS_9allocatorIS3_EEE9push_backERKS3_, .-_ZN4_STL6vectorIN7IwTween6CTween9ValueTypeENS_9allocatorIS3_EEE9push_backERKS3_
	.section	.text._ZN4_STL6vectorIN7IwTween6CTweenENS_9allocatorIS2_EEE5beginEv,"axG",%progbits,_ZN4_STL6vectorIN7IwTween6CTweenENS_9allocatorIS2_EEE5beginEv,comdat
	.align	2
	.weak	_ZN4_STL6vectorIN7IwTween6CTweenENS_9allocatorIS2_EEE5beginEv
	.hidden	_ZN4_STL6vectorIN7IwTween6CTweenENS_9allocatorIS2_EEE5beginEv
	.type	_ZN4_STL6vectorIN7IwTween6CTweenENS_9allocatorIS2_EEE5beginEv, %function
_ZN4_STL6vectorIN7IwTween6CTweenENS_9allocatorIS2_EEE5beginEv:
.LFB543:
	.loc 6 172 0
	.cfi_startproc
	sub	sp, sp, #16
.LCFI59:
	.cfi_def_cfa_offset 16
	str	x0, [sp, 8]
	.loc 6 172 0
	ldr	x0, [sp, 8]
	ldr	x0, [x0]
	add	sp, sp, 16
.LCFI60:
	.cfi_def_cfa_offset 0
	ret
	.cfi_endproc
.LFE543:
	.size	_ZN4_STL6vectorIN7IwTween6CTweenENS_9allocatorIS2_EEE5beginEv, .-_ZN4_STL6vectorIN7IwTween6CTweenENS_9allocatorIS2_EEE5beginEv
	.section	.text._ZN4_STL6vectorIN7IwTween6CTweenENS_9allocatorIS2_EEE3endEv,"axG",%progbits,_ZN4_STL6vectorIN7IwTween6CTweenENS_9allocatorIS2_EEE3endEv,comdat
	.align	2
	.weak	_ZN4_STL6vectorIN7IwTween6CTweenENS_9allocatorIS2_EEE3endEv
	.hidden	_ZN4_STL6vectorIN7IwTween6CTweenENS_9allocatorIS2_EEE3endEv
	.type	_ZN4_STL6vectorIN7IwTween6CTweenENS_9allocatorIS2_EEE3endEv, %function
_ZN4_STL6vectorIN7IwTween6CTweenENS_9allocatorIS2_EEE3endEv:
.LFB544:
	.loc 6 174 0
	.cfi_startproc
	sub	sp, sp, #16
.LCFI61:
	.cfi_def_cfa_offset 16
	str	x0, [sp, 8]
	.loc 6 174 0
	ldr	x0, [sp, 8]
	ldr	x0, [x0, 8]
	add	sp, sp, 16
.LCFI62:
	.cfi_def_cfa_offset 0
	ret
	.cfi_endproc
.LFE544:
	.size	_ZN4_STL6vectorIN7IwTween6CTweenENS_9allocatorIS2_EEE3endEv, .-_ZN4_STL6vectorIN7IwTween6CTweenENS_9allocatorIS2_EEE3endEv
	.section	.text._ZN4_STL6vectorIN7IwTween6CTweenENS_9allocatorIS2_EEE5eraseEPS2_,"axG",%progbits,_ZN4_STL6vectorIN7IwTween6CTweenENS_9allocatorIS2_EEE5eraseEPS2_,comdat
	.align	2
	.weak	_ZN4_STL6vectorIN7IwTween6CTweenENS_9allocatorIS2_EEE5eraseEPS2_
	.hidden	_ZN4_STL6vectorIN7IwTween6CTweenENS_9allocatorIS2_EEE5eraseEPS2_
	.type	_ZN4_STL6vectorIN7IwTween6CTweenENS_9allocatorIS2_EEE5eraseEPS2_, %function
_ZN4_STL6vectorIN7IwTween6CTweenENS_9allocatorIS2_EEE5eraseEPS2_:
.LFB545:
	.loc 6 466 0
	.cfi_startproc
	stp	x19, x30, [sp, -48]!
.LCFI63:
	.cfi_def_cfa_offset 48
	.cfi_offset 19, -48
	.cfi_offset 30, -40
	str	x0, [sp, 24]
	str	x1, [sp, 16]
	.loc 6 467 0
	ldr	x0, [sp, 16]
	add	x19, x0, 96
	ldr	x0, [sp, 24]
	bl	_ZN4_STL6vectorIN7IwTween6CTweenENS_9allocatorIS2_EEE3endEv
	cmp	x19, x0
	cset	w0, ne
	uxtb	w0, w0
	cmp	w0, wzr
	beq	.L316
	.loc 6 468 0
	ldr	x0, [sp, 16]
	add	x4, x0, 96
	ldr	x0, [sp, 24]
	ldr	x0, [x0, 8]
	add	x1, sp, 40
	mov	x3, x1
	ldr	x2, [sp, 16]
	mov	x1, x0
	mov	x0, x4
	bl	_ZN4_STL11__copy_ptrsIPN7IwTween6CTweenES3_EET0_T_S5_S4_RKNS_12__false_typeE
.L316:
	.loc 6 469 0
	ldr	x0, [sp, 24]
	ldr	x0, [x0, 8]
	sub	x1, x0, #96
	ldr	x0, [sp, 24]
	str	x1, [x0, 8]
	.loc 6 470 0
	ldr	x0, [sp, 24]
	ldr	x0, [x0, 8]
	bl	_ZN4_STL8_DestroyIN7IwTween6CTweenEEEvPT_
	.loc 6 471 0
	ldr	x0, [sp, 16]
	.loc 6 472 0
	ldp	x19, x30, [sp], 48
	.cfi_restore 30
	.cfi_restore 19
	ret
	.cfi_endproc
.LFE545:
	.size	_ZN4_STL6vectorIN7IwTween6CTweenENS_9allocatorIS2_EEE5eraseEPS2_, .-_ZN4_STL6vectorIN7IwTween6CTweenENS_9allocatorIS2_EEE5eraseEPS2_
	.section	.text._ZN4_STL3minIfEERKT_S3_S3_,"axG",%progbits,_ZN4_STL3minIfEERKT_S3_S3_,comdat
	.align	2
	.weak	_ZN4_STL3minIfEERKT_S3_S3_
	.hidden	_ZN4_STL3minIfEERKT_S3_S3_
	.type	_ZN4_STL3minIfEERKT_S3_S3_, %function
_ZN4_STL3minIfEERKT_S3_S3_:
.LFB546:
	.file 7 "e:/7.10/s3e/h/std/c++/stl/_algobase.h"
	.loc 7 77 0
	.cfi_startproc
	sub	sp, sp, #16
.LCFI64:
	.cfi_def_cfa_offset 16
	str	x0, [sp, 8]
	str	x1, [sp]
	.loc 7 77 0
	ldr	x0, [sp]
	ldr	w1, [x0]
	ldr	x0, [sp, 8]
	ldr	w0, [x0]
	fmov	s0, w1
	fmov	s1, w0
	fcmpe	s0, s1
	bpl	.L324
	.loc 7 77 0 is_stmt 0 discriminator 1
	ldr	x0, [sp]
	b	.L321
.L324:
	.loc 7 77 0 discriminator 2
	ldr	x0, [sp, 8]
.L321:
	.loc 7 77 0 discriminator 4
	add	sp, sp, 16
.LCFI65:
	.cfi_def_cfa_offset 0
	ret
	.cfi_endproc
.LFE546:
	.size	_ZN4_STL3minIfEERKT_S3_S3_, .-_ZN4_STL3minIfEERKT_S3_S3_
	.section	.text._ZN4_STL6vectorIN7IwTween6CTween9ValueTypeENS_9allocatorIS3_EEE5beginEv,"axG",%progbits,_ZN4_STL6vectorIN7IwTween6CTween9ValueTypeENS_9allocatorIS3_EEE5beginEv,comdat
	.align	2
	.weak	_ZN4_STL6vectorIN7IwTween6CTween9ValueTypeENS_9allocatorIS3_EEE5beginEv
	.hidden	_ZN4_STL6vectorIN7IwTween6CTween9ValueTypeENS_9allocatorIS3_EEE5beginEv
	.type	_ZN4_STL6vectorIN7IwTween6CTween9ValueTypeENS_9allocatorIS3_EEE5beginEv, %function
_ZN4_STL6vectorIN7IwTween6CTween9ValueTypeENS_9allocatorIS3_EEE5beginEv:
.LFB547:
	.loc 6 172 0 is_stmt 1
	.cfi_startproc
	sub	sp, sp, #16
.LCFI66:
	.cfi_def_cfa_offset 16
	str	x0, [sp, 8]
	.loc 6 172 0
	ldr	x0, [sp, 8]
	ldr	x0, [x0]
	add	sp, sp, 16
.LCFI67:
	.cfi_def_cfa_offset 0
	ret
	.cfi_endproc
.LFE547:
	.size	_ZN4_STL6vectorIN7IwTween6CTween9ValueTypeENS_9allocatorIS3_EEE5beginEv, .-_ZN4_STL6vectorIN7IwTween6CTween9ValueTypeENS_9allocatorIS3_EEE5beginEv
	.section	.text._ZN4_STL6vectorIN7IwTween6CTween9ValueTypeENS_9allocatorIS3_EEE3endEv,"axG",%progbits,_ZN4_STL6vectorIN7IwTween6CTween9ValueTypeENS_9allocatorIS3_EEE3endEv,comdat
	.align	2
	.weak	_ZN4_STL6vectorIN7IwTween6CTween9ValueTypeENS_9allocatorIS3_EEE3endEv
	.hidden	_ZN4_STL6vectorIN7IwTween6CTween9ValueTypeENS_9allocatorIS3_EEE3endEv
	.type	_ZN4_STL6vectorIN7IwTween6CTween9ValueTypeENS_9allocatorIS3_EEE3endEv, %function
_ZN4_STL6vectorIN7IwTween6CTween9ValueTypeENS_9allocatorIS3_EEE3endEv:
.LFB548:
	.loc 6 174 0
	.cfi_startproc
	sub	sp, sp, #16
.LCFI68:
	.cfi_def_cfa_offset 16
	str	x0, [sp, 8]
	.loc 6 174 0
	ldr	x0, [sp, 8]
	ldr	x0, [x0, 8]
	add	sp, sp, 16
.LCFI69:
	.cfi_def_cfa_offset 0
	ret
	.cfi_endproc
.LFE548:
	.size	_ZN4_STL6vectorIN7IwTween6CTween9ValueTypeENS_9allocatorIS3_EEE3endEv, .-_ZN4_STL6vectorIN7IwTween6CTween9ValueTypeENS_9allocatorIS3_EEE3endEv
	.section	.text._ZN4_STL17_STLP_alloc_proxyIPN7IwTween6CTween9ValueTypeES3_NS_9allocatorIS3_EEED2Ev,"axG",%progbits,_ZN4_STL17_STLP_alloc_proxyIPN7IwTween6CTween9ValueTypeES3_NS_9allocatorIS3_EEED5Ev,comdat
	.align	2
	.weak	_ZN4_STL17_STLP_alloc_proxyIPN7IwTween6CTween9ValueTypeES3_NS_9allocatorIS3_EEED2Ev
	.hidden	_ZN4_STL17_STLP_alloc_proxyIPN7IwTween6CTween9ValueTypeES3_NS_9allocatorIS3_EEED2Ev
	.type	_ZN4_STL17_STLP_alloc_proxyIPN7IwTween6CTween9ValueTypeES3_NS_9allocatorIS3_EEED2Ev, %function
_ZN4_STL17_STLP_alloc_proxyIPN7IwTween6CTween9ValueTypeES3_NS_9allocatorIS3_EEED2Ev:
.LFB551:
	.loc 5 481 0
	.cfi_startproc
	str	x30, [sp, -32]!
.LCFI70:
	.cfi_def_cfa_offset 32
	.cfi_offset 30, -32
	str	x0, [sp, 24]
.LBB67:
	.loc 5 481 0
	ldr	x0, [sp, 24]
	bl	_ZN4_STL9allocatorIN7IwTween6CTween9ValueTypeEED2Ev
.LBE67:
	ldr	x30, [sp], 32
	.cfi_restore 30
	ret
	.cfi_endproc
.LFE551:
	.size	_ZN4_STL17_STLP_alloc_proxyIPN7IwTween6CTween9ValueTypeES3_NS_9allocatorIS3_EEED2Ev, .-_ZN4_STL17_STLP_alloc_proxyIPN7IwTween6CTween9ValueTypeES3_NS_9allocatorIS3_EEED2Ev
	.weak	_ZN4_STL17_STLP_alloc_proxyIPN7IwTween6CTween9ValueTypeES3_NS_9allocatorIS3_EEED1Ev
	.hidden	_ZN4_STL17_STLP_alloc_proxyIPN7IwTween6CTween9ValueTypeES3_NS_9allocatorIS3_EEED1Ev
_ZN4_STL17_STLP_alloc_proxyIPN7IwTween6CTween9ValueTypeES3_NS_9allocatorIS3_EEED1Ev = _ZN4_STL17_STLP_alloc_proxyIPN7IwTween6CTween9ValueTypeES3_NS_9allocatorIS3_EEED2Ev
	.section	.text._ZN4_STL12_Vector_baseIN7IwTween6CTween9ValueTypeENS_9allocatorIS3_EEEC2ERKS5_,"axG",%progbits,_ZN4_STL12_Vector_baseIN7IwTween6CTween9ValueTypeENS_9allocatorIS3_EEEC5ERKS5_,comdat
	.align	2
	.weak	_ZN4_STL12_Vector_baseIN7IwTween6CTween9ValueTypeENS_9allocatorIS3_EEEC2ERKS5_
	.hidden	_ZN4_STL12_Vector_baseIN7IwTween6CTween9ValueTypeENS_9allocatorIS3_EEEC2ERKS5_
	.type	_ZN4_STL12_Vector_baseIN7IwTween6CTween9ValueTypeENS_9allocatorIS3_EEEC2ERKS5_, %function
_ZN4_STL12_Vector_baseIN7IwTween6CTween9ValueTypeENS_9allocatorIS3_EEEC2ERKS5_:
.LFB553:
	.loc 6 71 0
	.cfi_startproc
	str	x30, [sp, -32]!
.LCFI71:
	.cfi_def_cfa_offset 32
	.cfi_offset 30, -32
	str	x0, [sp, 24]
	str	x1, [sp, 16]
.LBB68:
	.loc 6 72 0
	ldr	x0, [sp, 24]
	str	xzr, [x0]
	ldr	x0, [sp, 24]
	str	xzr, [x0, 8]
	ldr	x0, [sp, 24]
	add	x0, x0, 16
	mov	x2, 0
	ldr	x1, [sp, 16]
	bl	_ZN4_STL17_STLP_alloc_proxyIPN7IwTween6CTween9ValueTypeES3_NS_9allocatorIS3_EEEC1ERKS6_S4_
.LBE68:
	.loc 6 73 0
	ldr	x30, [sp], 32
	.cfi_restore 30
	ret
	.cfi_endproc
.LFE553:
	.size	_ZN4_STL12_Vector_baseIN7IwTween6CTween9ValueTypeENS_9allocatorIS3_EEEC2ERKS5_, .-_ZN4_STL12_Vector_baseIN7IwTween6CTween9ValueTypeENS_9allocatorIS3_EEEC2ERKS5_
	.weak	_ZN4_STL12_Vector_baseIN7IwTween6CTween9ValueTypeENS_9allocatorIS3_EEEC1ERKS5_
	.hidden	_ZN4_STL12_Vector_baseIN7IwTween6CTween9ValueTypeENS_9allocatorIS3_EEEC1ERKS5_
_ZN4_STL12_Vector_baseIN7IwTween6CTween9ValueTypeENS_9allocatorIS3_EEEC1ERKS5_ = _ZN4_STL12_Vector_baseIN7IwTween6CTween9ValueTypeENS_9allocatorIS3_EEEC2ERKS5_
	.section	.text._ZN4_STL12_Vector_baseIN7IwTween6CTween9ValueTypeENS_9allocatorIS3_EEED2Ev,"axG",%progbits,_ZN4_STL12_Vector_baseIN7IwTween6CTween9ValueTypeENS_9allocatorIS3_EEED5Ev,comdat
	.align	2
	.weak	_ZN4_STL12_Vector_baseIN7IwTween6CTween9ValueTypeENS_9allocatorIS3_EEED2Ev
	.hidden	_ZN4_STL12_Vector_baseIN7IwTween6CTween9ValueTypeENS_9allocatorIS3_EEED2Ev
	.type	_ZN4_STL12_Vector_baseIN7IwTween6CTween9ValueTypeENS_9allocatorIS3_EEED2Ev, %function
_ZN4_STL12_Vector_baseIN7IwTween6CTween9ValueTypeENS_9allocatorIS3_EEED2Ev:
.LFB556:
	.loc 6 83 0
	.cfi_startproc
	str	x30, [sp, -32]!
.LCFI72:
	.cfi_def_cfa_offset 32
	.cfi_offset 30, -32
	str	x0, [sp, 24]
.LBB69:
	.loc 6 84 0
	ldr	x0, [sp, 24]
	ldr	x0, [x0]
	cmp	x0, xzr
	beq	.L333
	.loc 6 85 0
	ldr	x0, [sp, 24]
	add	x3, x0, 16
	ldr	x0, [sp, 24]
	ldr	x4, [x0]
	ldr	x0, [sp, 24]
	ldr	x0, [x0, 16]
	mov	x1, x0
	ldr	x0, [sp, 24]
	ldr	x0, [x0]
	sub	x0, x1, x0
	asr	x1, x0, 3
	mov	x0, -6148914691236517206
	add	x0, x0, 1
	mul	x0, x1, x0
	mov	x2, x0
	mov	x1, x4
	mov	x0, x3
	bl	_ZN4_STL9allocatorIN7IwTween6CTween9ValueTypeEE10deallocateEPS3_m
.L333:
	.loc 6 86 0
	ldr	x0, [sp, 24]
	add	x0, x0, 16
	bl	_ZN4_STL17_STLP_alloc_proxyIPN7IwTween6CTween9ValueTypeES3_NS_9allocatorIS3_EEED1Ev
.LBE69:
	ldr	x30, [sp], 32
	.cfi_restore 30
	ret
	.cfi_endproc
.LFE556:
	.size	_ZN4_STL12_Vector_baseIN7IwTween6CTween9ValueTypeENS_9allocatorIS3_EEED2Ev, .-_ZN4_STL12_Vector_baseIN7IwTween6CTween9ValueTypeENS_9allocatorIS3_EEED2Ev
	.weak	_ZN4_STL12_Vector_baseIN7IwTween6CTween9ValueTypeENS_9allocatorIS3_EEED1Ev
	.hidden	_ZN4_STL12_Vector_baseIN7IwTween6CTween9ValueTypeENS_9allocatorIS3_EEED1Ev
_ZN4_STL12_Vector_baseIN7IwTween6CTween9ValueTypeENS_9allocatorIS3_EEED1Ev = _ZN4_STL12_Vector_baseIN7IwTween6CTween9ValueTypeENS_9allocatorIS3_EEED2Ev
	.section	.text._ZN4_STL8_DestroyIPN7IwTween6CTween9ValueTypeEEEvT_S5_,"axG",%progbits,_ZN4_STL8_DestroyIPN7IwTween6CTween9ValueTypeEEEvT_S5_,comdat
	.align	2
	.weak	_ZN4_STL8_DestroyIPN7IwTween6CTween9ValueTypeEEEvT_S5_
	.hidden	_ZN4_STL8_DestroyIPN7IwTween6CTween9ValueTypeEEEvT_S5_
	.type	_ZN4_STL8_DestroyIPN7IwTween6CTween9ValueTypeEEEvT_S5_, %function
_ZN4_STL8_DestroyIPN7IwTween6CTween9ValueTypeEEEvT_S5_:
.LFB558:
	.file 8 "e:/7.10/s3e/h/std/c++/stl/_construct.h"
	.loc 8 138 0
	.cfi_startproc
	str	x30, [sp, -32]!
.LCFI73:
	.cfi_def_cfa_offset 32
	.cfi_offset 30, -32
	str	x0, [sp, 24]
	str	x1, [sp, 16]
	.loc 8 139 0
	mov	x2, 0
	ldr	x1, [sp, 16]
	ldr	x0, [sp, 24]
	bl	_ZN4_STL9__destroyIPN7IwTween6CTween9ValueTypeES3_EEvT_S5_PT0_
	.loc 8 140 0
	ldr	x30, [sp], 32
	.cfi_restore 30
	ret
	.cfi_endproc
.LFE558:
	.size	_ZN4_STL8_DestroyIPN7IwTween6CTween9ValueTypeEEEvT_S5_, .-_ZN4_STL8_DestroyIPN7IwTween6CTween9ValueTypeEEEvT_S5_
	.section	.text._ZN4_STL8_DestroyIPN7IwTween6CTweenEEEvT_S4_,"axG",%progbits,_ZN4_STL8_DestroyIPN7IwTween6CTweenEEEvT_S4_,comdat
	.align	2
	.weak	_ZN4_STL8_DestroyIPN7IwTween6CTweenEEEvT_S4_
	.hidden	_ZN4_STL8_DestroyIPN7IwTween6CTweenEEEvT_S4_
	.type	_ZN4_STL8_DestroyIPN7IwTween6CTweenEEEvT_S4_, %function
_ZN4_STL8_DestroyIPN7IwTween6CTweenEEEvT_S4_:
.LFB568:
	.loc 8 138 0
	.cfi_startproc
	str	x30, [sp, -32]!
.LCFI74:
	.cfi_def_cfa_offset 32
	.cfi_offset 30, -32
	str	x0, [sp, 24]
	str	x1, [sp, 16]
	.loc 8 139 0
	mov	x2, 0
	ldr	x1, [sp, 16]
	ldr	x0, [sp, 24]
	bl	_ZN4_STL9__destroyIPN7IwTween6CTweenES2_EEvT_S4_PT0_
	.loc 8 140 0
	ldr	x30, [sp], 32
	.cfi_restore 30
	ret
	.cfi_endproc
.LFE568:
	.size	_ZN4_STL8_DestroyIPN7IwTween6CTweenEEEvT_S4_, .-_ZN4_STL8_DestroyIPN7IwTween6CTweenEEEvT_S4_
	.section	.text._ZN7IwTween6CTweenC2ERKS0_,"axG",%progbits,_ZN7IwTween6CTweenC5ERKS0_,comdat
	.align	2
	.weak	_ZN7IwTween6CTweenC2ERKS0_
	.hidden	_ZN7IwTween6CTweenC2ERKS0_
	.type	_ZN7IwTween6CTweenC2ERKS0_, %function
_ZN7IwTween6CTweenC2ERKS0_:
.LFB572:
	.loc 2 377 0
	.cfi_startproc
	str	x30, [sp, -32]!
.LCFI75:
	.cfi_def_cfa_offset 32
	.cfi_offset 30, -32
	str	x0, [sp, 24]
	str	x1, [sp, 16]
.LBB70:
	.loc 2 377 0
	ldr	x0, [sp, 24]
	ldr	x1, [sp, 16]
	ldp	x2, x3, [x1]
	stp	x2, x3, [x0]
	ldp	x2, x3, [x1, 16]
	stp	x2, x3, [x0, 16]
	ldp	x1, x2, [x1, 32]
	stp	x1, x2, [x0, 32]
	ldr	x0, [sp, 16]
	ldr	w1, [x0, 48]
	ldr	x0, [sp, 24]
	str	w1, [x0, 48]
	ldr	x0, [sp, 16]
	ldrb	w1, [x0, 52]
	ldr	x0, [sp, 24]
	strb	w1, [x0, 52]
	ldr	x0, [sp, 16]
	ldrb	w1, [x0, 53]
	ldr	x0, [sp, 24]
	strb	w1, [x0, 53]
	ldr	x0, [sp, 16]
	ldrb	w1, [x0, 54]
	ldr	x0, [sp, 24]
	strb	w1, [x0, 54]
	ldr	x0, [sp, 16]
	ldrb	w1, [x0, 55]
	ldr	x0, [sp, 24]
	strb	w1, [x0, 55]
	ldr	x0, [sp, 16]
	ldr	w1, [x0, 56]
	ldr	x0, [sp, 24]
	str	w1, [x0, 56]
	ldr	x0, [sp, 24]
	add	x2, x0, 64
	ldr	x0, [sp, 16]
	add	x0, x0, 64
	mov	x1, x0
	mov	x0, x2
	bl	_ZN4_STL6vectorIN7IwTween6CTween9ValueTypeENS_9allocatorIS3_EEEC1ERKS6_
	ldr	x0, [sp, 16]
	ldr	x1, [x0, 88]
	ldr	x0, [sp, 24]
	str	x1, [x0, 88]
.LBE70:
	ldr	x30, [sp], 32
	.cfi_restore 30
	ret
	.cfi_endproc
.LFE572:
	.size	_ZN7IwTween6CTweenC2ERKS0_, .-_ZN7IwTween6CTweenC2ERKS0_
	.weak	_ZN7IwTween6CTweenC1ERKS0_
	.hidden	_ZN7IwTween6CTweenC1ERKS0_
_ZN7IwTween6CTweenC1ERKS0_ = _ZN7IwTween6CTweenC2ERKS0_
	.section	.text._ZN4_STL10_ConstructIN7IwTween6CTweenES2_EEvPT_RKT0_,"axG",%progbits,_ZN4_STL10_ConstructIN7IwTween6CTweenES2_EEvPT_RKT0_,comdat
	.align	2
	.weak	_ZN4_STL10_ConstructIN7IwTween6CTweenES2_EEvPT_RKT0_
	.hidden	_ZN4_STL10_ConstructIN7IwTween6CTweenES2_EEvPT_RKT0_
	.type	_ZN4_STL10_ConstructIN7IwTween6CTweenES2_EEvPT_RKT0_, %function
_ZN4_STL10_ConstructIN7IwTween6CTweenES2_EEvPT_RKT0_:
.LFB570:
	.loc 8 93 0
	.cfi_startproc
	str	x30, [sp, -32]!
.LCFI76:
	.cfi_def_cfa_offset 32
	.cfi_offset 30, -32
	str	x0, [sp, 24]
	str	x1, [sp, 16]
	.loc 8 97 0
	ldr	x0, [sp, 24]
	mov	x1, x0
	mov	x0, 96
	bl	_ZnwmPv
	ldr	x1, [sp, 16]
	bl	_ZN7IwTween6CTweenC1ERKS0_
	.loc 8 98 0
	ldr	x30, [sp], 32
	.cfi_restore 30
	ret
	.cfi_endproc
.LFE570:
	.size	_ZN4_STL10_ConstructIN7IwTween6CTweenES2_EEvPT_RKT0_, .-_ZN4_STL10_ConstructIN7IwTween6CTweenES2_EEvPT_RKT0_
	.section	.text._ZN4_STL6vectorIN7IwTween6CTweenENS_9allocatorIS2_EEE18_M_insert_overflowEPS2_RKS2_RKNS_12__false_typeEmb,"axG",%progbits,_ZN4_STL6vectorIN7IwTween6CTweenENS_9allocatorIS2_EEE18_M_insert_overflowEPS2_RKS2_RKNS_12__false_typeEmb,comdat
	.align	2
	.weak	_ZN4_STL6vectorIN7IwTween6CTweenENS_9allocatorIS2_EEE18_M_insert_overflowEPS2_RKS2_RKNS_12__false_typeEmb
	.hidden	_ZN4_STL6vectorIN7IwTween6CTweenENS_9allocatorIS2_EEE18_M_insert_overflowEPS2_RKS2_RKNS_12__false_typeEmb
	.type	_ZN4_STL6vectorIN7IwTween6CTweenENS_9allocatorIS2_EEE18_M_insert_overflowEPS2_RKS2_RKNS_12__false_typeEmb, %function
_ZN4_STL6vectorIN7IwTween6CTweenENS_9allocatorIS2_EEE18_M_insert_overflowEPS2_RKS2_RKNS_12__false_typeEmb:
.LFB574:
	.loc 6 125 0
	.cfi_startproc
	str	x30, [sp, -128]!
.LCFI77:
	.cfi_def_cfa_offset 128
	.cfi_offset 30, -128
	str	x0, [sp, 56]
	str	x1, [sp, 48]
	str	x2, [sp, 40]
	str	x3, [sp, 32]
	str	x4, [sp, 24]
	strb	w5, [sp, 23]
.LBB71:
	.loc 6 127 0
	ldr	x0, [sp, 56]
	bl	_ZNK4_STL6vectorIN7IwTween6CTweenENS_9allocatorIS2_EEE4sizeEv
	str	x0, [sp, 72]
	.loc 6 128 0
	add	x1, sp, 24
	add	x0, sp, 72
	bl	_ZN4_STL3maxImEERKT_S3_S3_
	ldr	x1, [x0]
	ldr	x0, [sp, 72]
	add	x0, x1, x0
	str	x0, [sp, 112]
	.loc 6 130 0
	ldr	x0, [sp, 56]
	add	x0, x0, 16
	mov	x2, 0
	ldr	x1, [sp, 112]
	bl	_ZN4_STL9allocatorIN7IwTween6CTweenEE8allocateEmPKv
	str	x0, [sp, 104]
	.loc 6 131 0
	ldr	x0, [sp, 104]
	str	x0, [sp, 120]
	.loc 6 133 0
	ldr	x0, [sp, 56]
	ldr	x0, [x0]
	add	x1, sp, 80
	mov	x3, x1
	ldr	x2, [sp, 104]
	ldr	x1, [sp, 48]
	bl	_ZN4_STL20__uninitialized_copyIPN7IwTween6CTweenES3_EET0_T_S5_S4_RKNS_12__false_typeE
	str	x0, [sp, 120]
	.loc 6 135 0
	ldr	x0, [sp, 24]
	cmp	x0, 1
	bne	.L340
	.loc 6 136 0
	ldr	x1, [sp, 40]
	ldr	x0, [sp, 120]
	bl	_ZN4_STL10_ConstructIN7IwTween6CTweenES2_EEvPT_RKT0_
	.loc 6 137 0
	ldr	x0, [sp, 120]
	add	x0, x0, 96
	str	x0, [sp, 120]
	b	.L341
.L340:
	.loc 6 139 0
	ldr	x0, [sp, 24]
	add	x1, sp, 88
	mov	x3, x1
	ldr	x2, [sp, 40]
	mov	x1, x0
	ldr	x0, [sp, 120]
	bl	_ZN4_STL22__uninitialized_fill_nIPN7IwTween6CTweenEmS2_EET_S4_T0_RKT1_RKNS_12__false_typeE
	str	x0, [sp, 120]
.L341:
	.loc 6 140 0
	ldrb	w0, [sp, 23]
	eor	w0, w0, 1
	uxtb	w0, w0
	cmp	w0, wzr
	beq	.L342
	.loc 6 142 0
	ldr	x0, [sp, 56]
	ldr	x0, [x0, 8]
	add	x1, sp, 96
	mov	x3, x1
	ldr	x2, [sp, 120]
	mov	x1, x0
	ldr	x0, [sp, 48]
	bl	_ZN4_STL20__uninitialized_copyIPN7IwTween6CTweenES3_EET0_T_S5_S4_RKNS_12__false_typeE
	str	x0, [sp, 120]
.L342:
	.loc 6 146 0
	ldr	x0, [sp, 56]
	bl	_ZN4_STL6vectorIN7IwTween6CTweenENS_9allocatorIS2_EEE8_M_clearEv
	.loc 6 147 0
	ldr	x1, [sp, 112]
	mov	x0, x1
	lsl	x0, x0, 2
	sub	x0, x0, x1
	lsl	x0, x0, 5
	mov	x1, x0
	ldr	x0, [sp, 104]
	add	x0, x0, x1
	mov	x3, x0
	ldr	x2, [sp, 120]
	ldr	x1, [sp, 104]
	ldr	x0, [sp, 56]
	bl	_ZN4_STL6vectorIN7IwTween6CTweenENS_9allocatorIS2_EEE6_M_setEPS2_S6_S6_
.LBE71:
	.loc 6 148 0
	ldr	x30, [sp], 128
	.cfi_restore 30
	ret
	.cfi_endproc
.LFE574:
	.size	_ZN4_STL6vectorIN7IwTween6CTweenENS_9allocatorIS2_EEE18_M_insert_overflowEPS2_RKS2_RKNS_12__false_typeEmb, .-_ZN4_STL6vectorIN7IwTween6CTweenENS_9allocatorIS2_EEE18_M_insert_overflowEPS2_RKS2_RKNS_12__false_typeEmb
	.section	.text._ZN4_STL10_ConstructIN7IwTween6CTween9ValueTypeES3_EEvPT_RKT0_,"axG",%progbits,_ZN4_STL10_ConstructIN7IwTween6CTween9ValueTypeES3_EEvPT_RKT0_,comdat
	.align	2
	.weak	_ZN4_STL10_ConstructIN7IwTween6CTween9ValueTypeES3_EEvPT_RKT0_
	.hidden	_ZN4_STL10_ConstructIN7IwTween6CTween9ValueTypeES3_EEvPT_RKT0_
	.type	_ZN4_STL10_ConstructIN7IwTween6CTween9ValueTypeES3_EEvPT_RKT0_, %function
_ZN4_STL10_ConstructIN7IwTween6CTween9ValueTypeES3_EEvPT_RKT0_:
.LFB575:
	.loc 8 93 0
	.cfi_startproc
	str	x30, [sp, -32]!
.LCFI78:
	.cfi_def_cfa_offset 32
	.cfi_offset 30, -32
	str	x0, [sp, 24]
	str	x1, [sp, 16]
	.loc 8 97 0
	ldr	x0, [sp, 24]
	mov	x1, x0
	mov	x0, 24
	bl	_ZnwmPv
	mov	x1, x0
	ldr	x0, [sp, 16]
	mov	x2, x1
	mov	x3, x0
	ldp	x0, x1, [x3]
	stp	x0, x1, [x2]
	ldr	x0, [x3, 16]
	str	x0, [x2, 16]
	.loc 8 98 0
	ldr	x30, [sp], 32
	.cfi_restore 30
	ret
	.cfi_endproc
.LFE575:
	.size	_ZN4_STL10_ConstructIN7IwTween6CTween9ValueTypeES3_EEvPT_RKT0_, .-_ZN4_STL10_ConstructIN7IwTween6CTween9ValueTypeES3_EEvPT_RKT0_
	.section	.text._ZN4_STL6vectorIN7IwTween6CTween9ValueTypeENS_9allocatorIS3_EEE18_M_insert_overflowEPS3_RKS3_RKNS_12__false_typeEmb,"axG",%progbits,_ZN4_STL6vectorIN7IwTween6CTween9ValueTypeENS_9allocatorIS3_EEE18_M_insert_overflowEPS3_RKS3_RKNS_12__false_typeEmb,comdat
	.align	2
	.weak	_ZN4_STL6vectorIN7IwTween6CTween9ValueTypeENS_9allocatorIS3_EEE18_M_insert_overflowEPS3_RKS3_RKNS_12__false_typeEmb
	.hidden	_ZN4_STL6vectorIN7IwTween6CTween9ValueTypeENS_9allocatorIS3_EEE18_M_insert_overflowEPS3_RKS3_RKNS_12__false_typeEmb
	.type	_ZN4_STL6vectorIN7IwTween6CTween9ValueTypeENS_9allocatorIS3_EEE18_M_insert_overflowEPS3_RKS3_RKNS_12__false_typeEmb, %function
_ZN4_STL6vectorIN7IwTween6CTween9ValueTypeENS_9allocatorIS3_EEE18_M_insert_overflowEPS3_RKS3_RKNS_12__false_typeEmb:
.LFB576:
	.loc 6 125 0
	.cfi_startproc
	str	x30, [sp, -128]!
.LCFI79:
	.cfi_def_cfa_offset 128
	.cfi_offset 30, -128
	str	x0, [sp, 56]
	str	x1, [sp, 48]
	str	x2, [sp, 40]
	str	x3, [sp, 32]
	str	x4, [sp, 24]
	strb	w5, [sp, 23]
.LBB72:
	.loc 6 127 0
	ldr	x0, [sp, 56]
	bl	_ZNK4_STL6vectorIN7IwTween6CTween9ValueTypeENS_9allocatorIS3_EEE4sizeEv
	str	x0, [sp, 72]
	.loc 6 128 0
	add	x1, sp, 24
	add	x0, sp, 72
	bl	_ZN4_STL3maxImEERKT_S3_S3_
	ldr	x1, [x0]
	ldr	x0, [sp, 72]
	add	x0, x1, x0
	str	x0, [sp, 112]
	.loc 6 130 0
	ldr	x0, [sp, 56]
	add	x0, x0, 16
	mov	x2, 0
	ldr	x1, [sp, 112]
	bl	_ZN4_STL9allocatorIN7IwTween6CTween9ValueTypeEE8allocateEmPKv
	str	x0, [sp, 104]
	.loc 6 131 0
	ldr	x0, [sp, 104]
	str	x0, [sp, 120]
	.loc 6 133 0
	ldr	x0, [sp, 56]
	ldr	x0, [x0]
	add	x1, sp, 80
	mov	x3, x1
	ldr	x2, [sp, 104]
	ldr	x1, [sp, 48]
	bl	_ZN4_STL20__uninitialized_copyIPN7IwTween6CTween9ValueTypeES4_EET0_T_S6_S5_RKNS_12__false_typeE
	str	x0, [sp, 120]
	.loc 6 135 0
	ldr	x0, [sp, 24]
	cmp	x0, 1
	bne	.L345
	.loc 6 136 0
	ldr	x1, [sp, 40]
	ldr	x0, [sp, 120]
	bl	_ZN4_STL10_ConstructIN7IwTween6CTween9ValueTypeES3_EEvPT_RKT0_
	.loc 6 137 0
	ldr	x0, [sp, 120]
	add	x0, x0, 24
	str	x0, [sp, 120]
	b	.L346
.L345:
	.loc 6 139 0
	ldr	x0, [sp, 24]
	add	x1, sp, 88
	mov	x3, x1
	ldr	x2, [sp, 40]
	mov	x1, x0
	ldr	x0, [sp, 120]
	bl	_ZN4_STL22__uninitialized_fill_nIPN7IwTween6CTween9ValueTypeEmS3_EET_S5_T0_RKT1_RKNS_12__false_typeE
	str	x0, [sp, 120]
.L346:
	.loc 6 140 0
	ldrb	w0, [sp, 23]
	eor	w0, w0, 1
	uxtb	w0, w0
	cmp	w0, wzr
	beq	.L347
	.loc 6 142 0
	ldr	x0, [sp, 56]
	ldr	x0, [x0, 8]
	add	x1, sp, 96
	mov	x3, x1
	ldr	x2, [sp, 120]
	mov	x1, x0
	ldr	x0, [sp, 48]
	bl	_ZN4_STL20__uninitialized_copyIPN7IwTween6CTween9ValueTypeES4_EET0_T_S6_S5_RKNS_12__false_typeE
	str	x0, [sp, 120]
.L347:
	.loc 6 146 0
	ldr	x0, [sp, 56]
	bl	_ZN4_STL6vectorIN7IwTween6CTween9ValueTypeENS_9allocatorIS3_EEE8_M_clearEv
	.loc 6 147 0
	ldr	x1, [sp, 112]
	mov	x0, x1
	lsl	x0, x0, 2
	sub	x0, x0, x1
	lsl	x0, x0, 3
	mov	x1, x0
	ldr	x0, [sp, 104]
	add	x0, x0, x1
	mov	x3, x0
	ldr	x2, [sp, 120]
	ldr	x1, [sp, 104]
	ldr	x0, [sp, 56]
	bl	_ZN4_STL6vectorIN7IwTween6CTween9ValueTypeENS_9allocatorIS3_EEE6_M_setEPS3_S7_S7_
.LBE72:
	.loc 6 148 0
	ldr	x30, [sp], 128
	.cfi_restore 30
	ret
	.cfi_endproc
.LFE576:
	.size	_ZN4_STL6vectorIN7IwTween6CTween9ValueTypeENS_9allocatorIS3_EEE18_M_insert_overflowEPS3_RKS3_RKNS_12__false_typeEmb, .-_ZN4_STL6vectorIN7IwTween6CTween9ValueTypeENS_9allocatorIS3_EEE18_M_insert_overflowEPS3_RKS3_RKNS_12__false_typeEmb
	.section	.text._ZN4_STL11__copy_ptrsIPN7IwTween6CTweenES3_EET0_T_S5_S4_RKNS_12__false_typeE,"axG",%progbits,_ZN4_STL11__copy_ptrsIPN7IwTween6CTweenES3_EET0_T_S5_S4_RKNS_12__false_typeE,comdat
	.align	2
	.weak	_ZN4_STL11__copy_ptrsIPN7IwTween6CTweenES3_EET0_T_S5_S4_RKNS_12__false_typeE
	.hidden	_ZN4_STL11__copy_ptrsIPN7IwTween6CTweenES3_EET0_T_S5_S4_RKNS_12__false_typeE
	.type	_ZN4_STL11__copy_ptrsIPN7IwTween6CTweenES3_EET0_T_S5_S4_RKNS_12__false_typeE, %function
_ZN4_STL11__copy_ptrsIPN7IwTween6CTweenES3_EET0_T_S5_S4_RKNS_12__false_typeE:
.LFB577:
	.loc 7 188 0
	.cfi_startproc
	str	x30, [sp, -64]!
.LCFI80:
	.cfi_def_cfa_offset 64
	.cfi_offset 30, -64
	str	x0, [sp, 40]
	str	x1, [sp, 32]
	str	x2, [sp, 24]
	str	x3, [sp, 16]
	.loc 7 191 0
	add	x0, sp, 56
	mov	x4, 0
	mov	x3, x0
	ldr	x2, [sp, 24]
	ldr	x1, [sp, 32]
	ldr	x0, [sp, 40]
	bl	_ZN4_STL6__copyIPN7IwTween6CTweenES3_lEET0_T_S5_S4_RKNS_26random_access_iterator_tagEPT1_
	.loc 7 192 0
	ldr	x30, [sp], 64
	.cfi_restore 30
	ret
	.cfi_endproc
.LFE577:
	.size	_ZN4_STL11__copy_ptrsIPN7IwTween6CTweenES3_EET0_T_S5_S4_RKNS_12__false_typeE, .-_ZN4_STL11__copy_ptrsIPN7IwTween6CTweenES3_EET0_T_S5_S4_RKNS_12__false_typeE
	.section	.text._ZN4_STL8_DestroyIN7IwTween6CTweenEEEvPT_,"axG",%progbits,_ZN4_STL8_DestroyIN7IwTween6CTweenEEEvPT_,comdat
	.align	2
	.weak	_ZN4_STL8_DestroyIN7IwTween6CTweenEEEvPT_
	.hidden	_ZN4_STL8_DestroyIN7IwTween6CTweenEEEvPT_
	.type	_ZN4_STL8_DestroyIN7IwTween6CTweenEEEvPT_, %function
_ZN4_STL8_DestroyIN7IwTween6CTweenEEEvPT_:
.LFB578:
	.loc 8 56 0
	.cfi_startproc
	str	x30, [sp, -32]!
.LCFI81:
	.cfi_def_cfa_offset 32
	.cfi_offset 30, -32
	str	x0, [sp, 24]
	.loc 8 67 0
	ldr	x0, [sp, 24]
	bl	_ZN7IwTween6CTweenD1Ev
	.loc 8 73 0
	ldr	x30, [sp], 32
	.cfi_restore 30
	ret
	.cfi_endproc
.LFE578:
	.size	_ZN4_STL8_DestroyIN7IwTween6CTweenEEEvPT_, .-_ZN4_STL8_DestroyIN7IwTween6CTweenEEEvPT_
	.section	.text._ZN4_STL17_STLP_alloc_proxyIPN7IwTween6CTween9ValueTypeES3_NS_9allocatorIS3_EEEC2ERKS6_S4_,"axG",%progbits,_ZN4_STL17_STLP_alloc_proxyIPN7IwTween6CTween9ValueTypeES3_NS_9allocatorIS3_EEEC5ERKS6_S4_,comdat
	.align	2
	.weak	_ZN4_STL17_STLP_alloc_proxyIPN7IwTween6CTween9ValueTypeES3_NS_9allocatorIS3_EEEC2ERKS6_S4_
	.hidden	_ZN4_STL17_STLP_alloc_proxyIPN7IwTween6CTween9ValueTypeES3_NS_9allocatorIS3_EEEC2ERKS6_S4_
	.type	_ZN4_STL17_STLP_alloc_proxyIPN7IwTween6CTween9ValueTypeES3_NS_9allocatorIS3_EEEC2ERKS6_S4_, %function
_ZN4_STL17_STLP_alloc_proxyIPN7IwTween6CTween9ValueTypeES3_NS_9allocatorIS3_EEEC2ERKS6_S4_:
.LFB580:
	.loc 5 487 0
	.cfi_startproc
	str	x30, [sp, -48]!
.LCFI82:
	.cfi_def_cfa_offset 48
	.cfi_offset 30, -48
	str	x0, [sp, 40]
	str	x1, [sp, 32]
	str	x2, [sp, 24]
.LBB73:
	.loc 5 487 0
	ldr	x1, [sp, 32]
	ldr	x0, [sp, 40]
	bl	_ZN4_STL9allocatorIN7IwTween6CTween9ValueTypeEEC2ERKS4_
	ldr	x0, [sp, 40]
	ldr	x1, [sp, 24]
	str	x1, [x0]
.LBE73:
	ldr	x30, [sp], 48
	.cfi_restore 30
	ret
	.cfi_endproc
.LFE580:
	.size	_ZN4_STL17_STLP_alloc_proxyIPN7IwTween6CTween9ValueTypeES3_NS_9allocatorIS3_EEEC2ERKS6_S4_, .-_ZN4_STL17_STLP_alloc_proxyIPN7IwTween6CTween9ValueTypeES3_NS_9allocatorIS3_EEEC2ERKS6_S4_
	.weak	_ZN4_STL17_STLP_alloc_proxyIPN7IwTween6CTween9ValueTypeES3_NS_9allocatorIS3_EEEC1ERKS6_S4_
	.hidden	_ZN4_STL17_STLP_alloc_proxyIPN7IwTween6CTween9ValueTypeES3_NS_9allocatorIS3_EEEC1ERKS6_S4_
_ZN4_STL17_STLP_alloc_proxyIPN7IwTween6CTween9ValueTypeES3_NS_9allocatorIS3_EEEC1ERKS6_S4_ = _ZN4_STL17_STLP_alloc_proxyIPN7IwTween6CTween9ValueTypeES3_NS_9allocatorIS3_EEEC2ERKS6_S4_
	.section	.text._ZN4_STL9allocatorIN7IwTween6CTween9ValueTypeEE10deallocateEPS3_m,"axG",%progbits,_ZN4_STL9allocatorIN7IwTween6CTween9ValueTypeEE10deallocateEPS3_m,comdat
	.align	2
	.weak	_ZN4_STL9allocatorIN7IwTween6CTween9ValueTypeEE10deallocateEPS3_m
	.hidden	_ZN4_STL9allocatorIN7IwTween6CTween9ValueTypeEE10deallocateEPS3_m
	.type	_ZN4_STL9allocatorIN7IwTween6CTween9ValueTypeEE10deallocateEPS3_m, %function
_ZN4_STL9allocatorIN7IwTween6CTween9ValueTypeEE10deallocateEPS3_m:
.LFB582:
	.loc 5 358 0
	.cfi_startproc
	str	x30, [sp, -48]!
.LCFI83:
	.cfi_def_cfa_offset 48
	.cfi_offset 30, -48
	str	x0, [sp, 40]
	str	x1, [sp, 32]
	str	x2, [sp, 24]
	.loc 5 360 0
	ldr	x0, [sp, 32]
	cmp	x0, xzr
	beq	.L352
	.loc 5 360 0 is_stmt 0 discriminator 1
	ldr	x1, [sp, 24]
	mov	x0, x1
	lsl	x0, x0, 2
	sub	x0, x0, x1
	lsl	x0, x0, 3
	mov	x1, x0
	ldr	x0, [sp, 32]
	bl	_ZN4_STL14__malloc_allocILi0EE10deallocateEPvm
.L352:
	.loc 5 361 0 is_stmt 1
	ldr	x30, [sp], 48
	.cfi_restore 30
	ret
	.cfi_endproc
.LFE582:
	.size	_ZN4_STL9allocatorIN7IwTween6CTween9ValueTypeEE10deallocateEPS3_m, .-_ZN4_STL9allocatorIN7IwTween6CTween9ValueTypeEE10deallocateEPS3_m
	.section	.text._ZN4_STL9__destroyIPN7IwTween6CTween9ValueTypeES3_EEvT_S5_PT0_,"axG",%progbits,_ZN4_STL9__destroyIPN7IwTween6CTween9ValueTypeES3_EEvT_S5_PT0_,comdat
	.align	2
	.weak	_ZN4_STL9__destroyIPN7IwTween6CTween9ValueTypeES3_EEvT_S5_PT0_
	.hidden	_ZN4_STL9__destroyIPN7IwTween6CTween9ValueTypeES3_EEvT_S5_PT0_
	.type	_ZN4_STL9__destroyIPN7IwTween6CTween9ValueTypeES3_EEvT_S5_PT0_, %function
_ZN4_STL9__destroyIPN7IwTween6CTween9ValueTypeES3_EEvT_S5_PT0_:
.LFB583:
	.loc 8 132 0
	.cfi_startproc
	str	x30, [sp, -64]!
.LCFI84:
	.cfi_def_cfa_offset 64
	.cfi_offset 30, -64
	str	x0, [sp, 40]
	str	x1, [sp, 32]
	str	x2, [sp, 24]
.LBB74:
	.loc 8 134 0
	add	x0, sp, 56
	mov	x2, x0
	ldr	x1, [sp, 32]
	ldr	x0, [sp, 40]
	bl	_ZN4_STL13__destroy_auxIPN7IwTween6CTween9ValueTypeEEEvT_S5_RKNS_12__false_typeE
.LBE74:
	.loc 8 135 0
	ldr	x30, [sp], 64
	.cfi_restore 30
	ret
	.cfi_endproc
.LFE583:
	.size	_ZN4_STL9__destroyIPN7IwTween6CTween9ValueTypeES3_EEvT_S5_PT0_, .-_ZN4_STL9__destroyIPN7IwTween6CTween9ValueTypeES3_EEvT_S5_PT0_
	.section	.text._ZN4_STL9allocatorIN7IwTween6CTweenEE10deallocateEPS2_m,"axG",%progbits,_ZN4_STL9allocatorIN7IwTween6CTweenEE10deallocateEPS2_m,comdat
	.align	2
	.weak	_ZN4_STL9allocatorIN7IwTween6CTweenEE10deallocateEPS2_m
	.hidden	_ZN4_STL9allocatorIN7IwTween6CTweenEE10deallocateEPS2_m
	.type	_ZN4_STL9allocatorIN7IwTween6CTweenEE10deallocateEPS2_m, %function
_ZN4_STL9allocatorIN7IwTween6CTweenEE10deallocateEPS2_m:
.LFB587:
	.loc 5 358 0
	.cfi_startproc
	str	x30, [sp, -48]!
.LCFI85:
	.cfi_def_cfa_offset 48
	.cfi_offset 30, -48
	str	x0, [sp, 40]
	str	x1, [sp, 32]
	str	x2, [sp, 24]
	.loc 5 360 0
	ldr	x0, [sp, 32]
	cmp	x0, xzr
	beq	.L355
	.loc 5 360 0 is_stmt 0 discriminator 1
	ldr	x1, [sp, 24]
	mov	x0, x1
	lsl	x0, x0, 2
	sub	x0, x0, x1
	lsl	x0, x0, 5
	mov	x1, x0
	ldr	x0, [sp, 32]
	bl	_ZN4_STL14__malloc_allocILi0EE10deallocateEPvm
.L355:
	.loc 5 361 0 is_stmt 1
	ldr	x30, [sp], 48
	.cfi_restore 30
	ret
	.cfi_endproc
.LFE587:
	.size	_ZN4_STL9allocatorIN7IwTween6CTweenEE10deallocateEPS2_m, .-_ZN4_STL9allocatorIN7IwTween6CTweenEE10deallocateEPS2_m
	.section	.text._ZN4_STL9__destroyIPN7IwTween6CTweenES2_EEvT_S4_PT0_,"axG",%progbits,_ZN4_STL9__destroyIPN7IwTween6CTweenES2_EEvT_S4_PT0_,comdat
	.align	2
	.weak	_ZN4_STL9__destroyIPN7IwTween6CTweenES2_EEvT_S4_PT0_
	.hidden	_ZN4_STL9__destroyIPN7IwTween6CTweenES2_EEvT_S4_PT0_
	.type	_ZN4_STL9__destroyIPN7IwTween6CTweenES2_EEvT_S4_PT0_, %function
_ZN4_STL9__destroyIPN7IwTween6CTweenES2_EEvT_S4_PT0_:
.LFB588:
	.loc 8 132 0
	.cfi_startproc
	str	x30, [sp, -64]!
.LCFI86:
	.cfi_def_cfa_offset 64
	.cfi_offset 30, -64
	str	x0, [sp, 40]
	str	x1, [sp, 32]
	str	x2, [sp, 24]
.LBB75:
	.loc 8 134 0
	add	x0, sp, 56
	mov	x2, x0
	ldr	x1, [sp, 32]
	ldr	x0, [sp, 40]
	bl	_ZN4_STL13__destroy_auxIPN7IwTween6CTweenEEEvT_S4_RKNS_12__false_typeE
.LBE75:
	.loc 8 135 0
	ldr	x30, [sp], 64
	.cfi_restore 30
	ret
	.cfi_endproc
.LFE588:
	.size	_ZN4_STL9__destroyIPN7IwTween6CTweenES2_EEvT_S4_PT0_, .-_ZN4_STL9__destroyIPN7IwTween6CTweenES2_EEvT_S4_PT0_
	.section	.text._ZN4_STL6vectorIN7IwTween6CTween9ValueTypeENS_9allocatorIS3_EEEC2ERKS6_,"axG",%progbits,_ZN4_STL6vectorIN7IwTween6CTween9ValueTypeENS_9allocatorIS3_EEEC5ERKS6_,comdat
	.align	2
	.weak	_ZN4_STL6vectorIN7IwTween6CTween9ValueTypeENS_9allocatorIS3_EEEC2ERKS6_
	.hidden	_ZN4_STL6vectorIN7IwTween6CTween9ValueTypeENS_9allocatorIS3_EEEC2ERKS6_
	.type	_ZN4_STL6vectorIN7IwTween6CTween9ValueTypeENS_9allocatorIS3_EEEC2ERKS6_, %function
_ZN4_STL6vectorIN7IwTween6CTween9ValueTypeENS_9allocatorIS3_EEEC2ERKS6_:
.LFB590:
	.loc 6 212 0
	.cfi_startproc
	stp	x19, x20, [sp, -64]!
.LCFI87:
	.cfi_def_cfa_offset 64
	.cfi_offset 19, -64
	.cfi_offset 20, -56
	str	x30, [sp, 16]
	.cfi_offset 30, -48
	str	x0, [sp, 40]
	str	x1, [sp, 32]
.LBB76:
	.loc 6 213 0
	ldr	x19, [sp, 40]
	ldr	x0, [sp, 32]
	bl	_ZNK4_STL6vectorIN7IwTween6CTween9ValueTypeENS_9allocatorIS3_EEE4sizeEv
	mov	x20, x0
	add	x0, sp, 48
	mov	x8, x0
	ldr	x0, [sp, 32]
	bl	_ZNK4_STL6vectorIN7IwTween6CTween9ValueTypeENS_9allocatorIS3_EEE13get_allocatorEv
	add	x0, sp, 48
	mov	x2, x0
	mov	x1, x20
	mov	x0, x19
	bl	_ZN4_STL12_Vector_baseIN7IwTween6CTween9ValueTypeENS_9allocatorIS3_EEEC2EmRKS5_
	add	x0, sp, 48
	bl	_ZN4_STL9allocatorIN7IwTween6CTween9ValueTypeEED1Ev
	.loc 6 215 0
	ldr	x0, [sp, 32]
	ldr	x4, [x0]
	ldr	x0, [sp, 32]
	ldr	x1, [x0, 8]
	ldr	x0, [sp, 40]
	ldr	x0, [x0]
	add	x2, sp, 56
	mov	x3, x2
	mov	x2, x0
	mov	x0, x4
	bl	_ZN4_STL20__uninitialized_copyIPKN7IwTween6CTween9ValueTypeEPS3_EET0_T_S8_S7_RKNS_12__false_typeE
	mov	x1, x0
	.loc 6 214 0
	ldr	x0, [sp, 40]
	str	x1, [x0, 8]
.LBE76:
	.loc 6 216 0
	ldr	x30, [sp, 16]
	.cfi_restore 30
	ldp	x19, x20, [sp], 64
	.cfi_restore 20
	.cfi_restore 19
	ret
	.cfi_endproc
.LFE590:
	.size	_ZN4_STL6vectorIN7IwTween6CTween9ValueTypeENS_9allocatorIS3_EEEC2ERKS6_, .-_ZN4_STL6vectorIN7IwTween6CTween9ValueTypeENS_9allocatorIS3_EEEC2ERKS6_
	.weak	_ZN4_STL6vectorIN7IwTween6CTween9ValueTypeENS_9allocatorIS3_EEEC1ERKS6_
	.hidden	_ZN4_STL6vectorIN7IwTween6CTween9ValueTypeENS_9allocatorIS3_EEEC1ERKS6_
_ZN4_STL6vectorIN7IwTween6CTween9ValueTypeENS_9allocatorIS3_EEEC1ERKS6_ = _ZN4_STL6vectorIN7IwTween6CTween9ValueTypeENS_9allocatorIS3_EEEC2ERKS6_
	.section	.text._ZN4_STL3maxImEERKT_S3_S3_,"axG",%progbits,_ZN4_STL3maxImEERKT_S3_S3_,comdat
	.align	2
	.weak	_ZN4_STL3maxImEERKT_S3_S3_
	.hidden	_ZN4_STL3maxImEERKT_S3_S3_
	.type	_ZN4_STL3maxImEERKT_S3_S3_, %function
_ZN4_STL3maxImEERKT_S3_S3_:
.LFB592:
	.loc 7 79 0
	.cfi_startproc
	sub	sp, sp, #16
.LCFI88:
	.cfi_def_cfa_offset 16
	str	x0, [sp, 8]
	str	x1, [sp]
	.loc 7 79 0
	ldr	x0, [sp, 8]
	ldr	x1, [x0]
	ldr	x0, [sp]
	ldr	x0, [x0]
	cmp	x1, x0
	bcs	.L360
	.loc 7 79 0 is_stmt 0 discriminator 1
	ldr	x0, [sp]
	b	.L361
.L360:
	.loc 7 79 0 discriminator 2
	ldr	x0, [sp, 8]
.L361:
	.loc 7 79 0 discriminator 4
	add	sp, sp, 16
.LCFI89:
	.cfi_def_cfa_offset 0
	ret
	.cfi_endproc
.LFE592:
	.size	_ZN4_STL3maxImEERKT_S3_S3_, .-_ZN4_STL3maxImEERKT_S3_S3_
	.section	.text._ZN4_STL9allocatorIN7IwTween6CTweenEE8allocateEmPKv,"axG",%progbits,_ZN4_STL9allocatorIN7IwTween6CTweenEE8allocateEmPKv,comdat
	.align	2
	.weak	_ZN4_STL9allocatorIN7IwTween6CTweenEE8allocateEmPKv
	.hidden	_ZN4_STL9allocatorIN7IwTween6CTweenEE8allocateEmPKv
	.type	_ZN4_STL9allocatorIN7IwTween6CTweenEE8allocateEmPKv, %function
_ZN4_STL9allocatorIN7IwTween6CTweenEE8allocateEmPKv:
.LFB593:
	.loc 5 354 0 is_stmt 1
	.cfi_startproc
	str	x30, [sp, -48]!
.LCFI90:
	.cfi_def_cfa_offset 48
	.cfi_offset 30, -48
	str	x0, [sp, 40]
	str	x1, [sp, 32]
	str	x2, [sp, 24]
	.loc 5 355 0
	ldr	x0, [sp, 32]
	cmp	x0, xzr
	beq	.L364
	.loc 5 355 0 is_stmt 0 discriminator 1
	ldr	x1, [sp, 32]
	mov	x0, x1
	lsl	x0, x0, 2
	sub	x0, x0, x1
	lsl	x0, x0, 5
	bl	_ZN4_STL14__malloc_allocILi0EE8allocateEm
	b	.L365
.L364:
	.loc 5 355 0 discriminator 2
	mov	x0, 0
.L365:
	.loc 5 356 0 is_stmt 1 discriminator 4
	ldr	x30, [sp], 48
	.cfi_restore 30
	ret
	.cfi_endproc
.LFE593:
	.size	_ZN4_STL9allocatorIN7IwTween6CTweenEE8allocateEmPKv, .-_ZN4_STL9allocatorIN7IwTween6CTweenEE8allocateEmPKv
	.section	.text._ZN4_STL20__uninitialized_copyIPN7IwTween6CTweenES3_EET0_T_S5_S4_RKNS_12__false_typeE,"axG",%progbits,_ZN4_STL20__uninitialized_copyIPN7IwTween6CTweenES3_EET0_T_S5_S4_RKNS_12__false_typeE,comdat
	.align	2
	.weak	_ZN4_STL20__uninitialized_copyIPN7IwTween6CTweenES3_EET0_T_S5_S4_RKNS_12__false_typeE
	.hidden	_ZN4_STL20__uninitialized_copyIPN7IwTween6CTweenES3_EET0_T_S5_S4_RKNS_12__false_typeE
	.type	_ZN4_STL20__uninitialized_copyIPN7IwTween6CTweenES3_EET0_T_S5_S4_RKNS_12__false_typeE, %function
_ZN4_STL20__uninitialized_copyIPN7IwTween6CTweenES3_EET0_T_S5_S4_RKNS_12__false_typeE:
.LFB594:
	.file 9 "e:/7.10/s3e/h/std/c++/stl/_uninitialized.h"
	.loc 9 61 0
	.cfi_startproc
	str	x30, [sp, -64]!
.LCFI91:
	.cfi_def_cfa_offset 64
	.cfi_offset 30, -64
	str	x0, [sp, 40]
	str	x1, [sp, 32]
	str	x2, [sp, 24]
	str	x3, [sp, 16]
.LBB77:
	.loc 9 64 0
	ldr	x0, [sp, 24]
	str	x0, [sp, 56]
	.loc 9 66 0
	b	.L368
.L369:
	.loc 9 67 0 discriminator 2
	ldr	x1, [sp, 40]
	ldr	x0, [sp, 56]
	bl	_ZN4_STL10_ConstructIN7IwTween6CTweenES2_EEvPT_RKT0_
	.loc 9 66 0 discriminator 2
	ldr	x0, [sp, 40]
	add	x0, x0, 96
	str	x0, [sp, 40]
	ldr	x0, [sp, 56]
	add	x0, x0, 96
	str	x0, [sp, 56]
.L368:
	.loc 9 66 0 is_stmt 0 discriminator 1
	ldr	x1, [sp, 40]
	ldr	x0, [sp, 32]
	cmp	x1, x0
	bne	.L369
	.loc 9 68 0 is_stmt 1
	ldr	x0, [sp, 56]
.LBE77:
	.loc 9 74 0
	ldr	x30, [sp], 64
	.cfi_restore 30
	ret
	.cfi_endproc
.LFE594:
	.size	_ZN4_STL20__uninitialized_copyIPN7IwTween6CTweenES3_EET0_T_S5_S4_RKNS_12__false_typeE, .-_ZN4_STL20__uninitialized_copyIPN7IwTween6CTweenES3_EET0_T_S5_S4_RKNS_12__false_typeE
	.section	.text._ZN4_STL22__uninitialized_fill_nIPN7IwTween6CTweenEmS2_EET_S4_T0_RKT1_RKNS_12__false_typeE,"axG",%progbits,_ZN4_STL22__uninitialized_fill_nIPN7IwTween6CTweenEmS2_EET_S4_T0_RKT1_RKNS_12__false_typeE,comdat
	.align	2
	.weak	_ZN4_STL22__uninitialized_fill_nIPN7IwTween6CTweenEmS2_EET_S4_T0_RKT1_RKNS_12__false_typeE
	.hidden	_ZN4_STL22__uninitialized_fill_nIPN7IwTween6CTweenEmS2_EET_S4_T0_RKT1_RKNS_12__false_typeE
	.type	_ZN4_STL22__uninitialized_fill_nIPN7IwTween6CTweenEmS2_EET_S4_T0_RKT1_RKNS_12__false_typeE, %function
_ZN4_STL22__uninitialized_fill_nIPN7IwTween6CTweenEmS2_EET_S4_T0_RKT1_RKNS_12__false_typeE:
.LFB595:
	.loc 9 190 0
	.cfi_startproc
	str	x30, [sp, -64]!
.LCFI92:
	.cfi_def_cfa_offset 64
	.cfi_offset 30, -64
	str	x0, [sp, 40]
	str	x1, [sp, 32]
	str	x2, [sp, 24]
	str	x3, [sp, 16]
.LBB78:
	.loc 9 193 0
	ldr	x0, [sp, 40]
	str	x0, [sp, 56]
	.loc 9 195 0
	b	.L372
.L373:
	.loc 9 196 0 discriminator 2
	ldr	x1, [sp, 24]
	ldr	x0, [sp, 56]
	bl	_ZN4_STL10_ConstructIN7IwTween6CTweenES2_EEvPT_RKT0_
	.loc 9 195 0 discriminator 2
	ldr	x0, [sp, 32]
	sub	x0, x0, #1
	str	x0, [sp, 32]
	ldr	x0, [sp, 56]
	add	x0, x0, 96
	str	x0, [sp, 56]
.L372:
	.loc 9 195 0 is_stmt 0 discriminator 1
	ldr	x0, [sp, 32]
	cmp	x0, xzr
	bne	.L373
	.loc 9 197 0 is_stmt 1
	ldr	x0, [sp, 56]
.LBE78:
	.loc 9 203 0
	ldr	x30, [sp], 64
	.cfi_restore 30
	ret
	.cfi_endproc
.LFE595:
	.size	_ZN4_STL22__uninitialized_fill_nIPN7IwTween6CTweenEmS2_EET_S4_T0_RKT1_RKNS_12__false_typeE, .-_ZN4_STL22__uninitialized_fill_nIPN7IwTween6CTweenEmS2_EET_S4_T0_RKT1_RKNS_12__false_typeE
	.section	.text._ZN4_STL6vectorIN7IwTween6CTweenENS_9allocatorIS2_EEE8_M_clearEv,"axG",%progbits,_ZN4_STL6vectorIN7IwTween6CTweenENS_9allocatorIS2_EEE8_M_clearEv,comdat
	.align	2
	.weak	_ZN4_STL6vectorIN7IwTween6CTweenENS_9allocatorIS2_EEE8_M_clearEv
	.hidden	_ZN4_STL6vectorIN7IwTween6CTweenENS_9allocatorIS2_EEE8_M_clearEv
	.type	_ZN4_STL6vectorIN7IwTween6CTweenENS_9allocatorIS2_EEE8_M_clearEv, %function
_ZN4_STL6vectorIN7IwTween6CTweenENS_9allocatorIS2_EEE8_M_clearEv:
.LFB596:
	.loc 6 493 0
	.cfi_startproc
	str	x30, [sp, -32]!
.LCFI93:
	.cfi_def_cfa_offset 32
	.cfi_offset 30, -32
	str	x0, [sp, 24]
	.loc 6 495 0
	ldr	x0, [sp, 24]
	ldr	x2, [x0]
	ldr	x0, [sp, 24]
	ldr	x0, [x0, 8]
	mov	x1, x0
	mov	x0, x2
	bl	_ZN4_STL8_DestroyIPN7IwTween6CTweenEEEvT_S4_
	.loc 6 496 0
	ldr	x0, [sp, 24]
	add	x3, x0, 16
	ldr	x0, [sp, 24]
	ldr	x4, [x0]
	ldr	x0, [sp, 24]
	ldr	x0, [x0, 16]
	mov	x1, x0
	ldr	x0, [sp, 24]
	ldr	x0, [x0]
	sub	x0, x1, x0
	asr	x1, x0, 5
	mov	x0, -6148914691236517206
	add	x0, x0, 1
	mul	x0, x1, x0
	mov	x2, x0
	mov	x1, x4
	mov	x0, x3
	bl	_ZN4_STL9allocatorIN7IwTween6CTweenEE10deallocateEPS2_m
	.loc 6 498 0
	ldr	x30, [sp], 32
	.cfi_restore 30
	ret
	.cfi_endproc
.LFE596:
	.size	_ZN4_STL6vectorIN7IwTween6CTweenENS_9allocatorIS2_EEE8_M_clearEv, .-_ZN4_STL6vectorIN7IwTween6CTweenENS_9allocatorIS2_EEE8_M_clearEv
	.section	.text._ZN4_STL6vectorIN7IwTween6CTweenENS_9allocatorIS2_EEE6_M_setEPS2_S6_S6_,"axG",%progbits,_ZN4_STL6vectorIN7IwTween6CTweenENS_9allocatorIS2_EEE6_M_setEPS2_S6_S6_,comdat
	.align	2
	.weak	_ZN4_STL6vectorIN7IwTween6CTweenENS_9allocatorIS2_EEE6_M_setEPS2_S6_S6_
	.hidden	_ZN4_STL6vectorIN7IwTween6CTweenENS_9allocatorIS2_EEE6_M_setEPS2_S6_S6_
	.type	_ZN4_STL6vectorIN7IwTween6CTweenENS_9allocatorIS2_EEE6_M_setEPS2_S6_S6_, %function
_ZN4_STL6vectorIN7IwTween6CTweenENS_9allocatorIS2_EEE6_M_setEPS2_S6_S6_:
.LFB597:
	.loc 6 500 0
	.cfi_startproc
	sub	sp, sp, #32
.LCFI94:
	.cfi_def_cfa_offset 32
	str	x0, [sp, 24]
	str	x1, [sp, 16]
	str	x2, [sp, 8]
	str	x3, [sp]
	.loc 6 501 0
	ldr	x0, [sp, 24]
	ldr	x1, [sp, 16]
	str	x1, [x0]
	.loc 6 502 0
	ldr	x0, [sp, 24]
	ldr	x1, [sp, 8]
	str	x1, [x0, 8]
	.loc 6 503 0
	ldr	x0, [sp, 24]
	ldr	x1, [sp]
	str	x1, [x0, 16]
	.loc 6 504 0
	add	sp, sp, 32
.LCFI95:
	.cfi_def_cfa_offset 0
	ret
	.cfi_endproc
.LFE597:
	.size	_ZN4_STL6vectorIN7IwTween6CTweenENS_9allocatorIS2_EEE6_M_setEPS2_S6_S6_, .-_ZN4_STL6vectorIN7IwTween6CTweenENS_9allocatorIS2_EEE6_M_setEPS2_S6_S6_
	.section	.text._ZNK4_STL6vectorIN7IwTween6CTween9ValueTypeENS_9allocatorIS3_EEE4sizeEv,"axG",%progbits,_ZNK4_STL6vectorIN7IwTween6CTween9ValueTypeENS_9allocatorIS3_EEE4sizeEv,comdat
	.align	2
	.weak	_ZNK4_STL6vectorIN7IwTween6CTween9ValueTypeENS_9allocatorIS3_EEE4sizeEv
	.hidden	_ZNK4_STL6vectorIN7IwTween6CTween9ValueTypeENS_9allocatorIS3_EEE4sizeEv
	.type	_ZNK4_STL6vectorIN7IwTween6CTween9ValueTypeENS_9allocatorIS3_EEE4sizeEv, %function
_ZNK4_STL6vectorIN7IwTween6CTween9ValueTypeENS_9allocatorIS3_EEE4sizeEv:
.LFB598:
	.loc 6 182 0
	.cfi_startproc
	sub	sp, sp, #16
.LCFI96:
	.cfi_def_cfa_offset 16
	str	x0, [sp, 8]
	.loc 6 182 0
	ldr	x0, [sp, 8]
	ldr	x0, [x0, 8]
	mov	x1, x0
	ldr	x0, [sp, 8]
	ldr	x0, [x0]
	sub	x0, x1, x0
	asr	x1, x0, 3
	mov	x0, -6148914691236517206
	add	x0, x0, 1
	mul	x0, x1, x0
	add	sp, sp, 16
.LCFI97:
	.cfi_def_cfa_offset 0
	ret
	.cfi_endproc
.LFE598:
	.size	_ZNK4_STL6vectorIN7IwTween6CTween9ValueTypeENS_9allocatorIS3_EEE4sizeEv, .-_ZNK4_STL6vectorIN7IwTween6CTween9ValueTypeENS_9allocatorIS3_EEE4sizeEv
	.section	.text._ZN4_STL9allocatorIN7IwTween6CTween9ValueTypeEE8allocateEmPKv,"axG",%progbits,_ZN4_STL9allocatorIN7IwTween6CTween9ValueTypeEE8allocateEmPKv,comdat
	.align	2
	.weak	_ZN4_STL9allocatorIN7IwTween6CTween9ValueTypeEE8allocateEmPKv
	.hidden	_ZN4_STL9allocatorIN7IwTween6CTween9ValueTypeEE8allocateEmPKv
	.type	_ZN4_STL9allocatorIN7IwTween6CTween9ValueTypeEE8allocateEmPKv, %function
_ZN4_STL9allocatorIN7IwTween6CTween9ValueTypeEE8allocateEmPKv:
.LFB599:
	.loc 5 354 0
	.cfi_startproc
	str	x30, [sp, -48]!
.LCFI98:
	.cfi_def_cfa_offset 48
	.cfi_offset 30, -48
	str	x0, [sp, 40]
	str	x1, [sp, 32]
	str	x2, [sp, 24]
	.loc 5 355 0
	ldr	x0, [sp, 32]
	cmp	x0, xzr
	beq	.L380
	.loc 5 355 0 is_stmt 0 discriminator 1
	ldr	x1, [sp, 32]
	mov	x0, x1
	lsl	x0, x0, 2
	sub	x0, x0, x1
	lsl	x0, x0, 3
	bl	_ZN4_STL14__malloc_allocILi0EE8allocateEm
	b	.L381
.L380:
	.loc 5 355 0 discriminator 2
	mov	x0, 0
.L381:
	.loc 5 356 0 is_stmt 1 discriminator 4
	ldr	x30, [sp], 48
	.cfi_restore 30
	ret
	.cfi_endproc
.LFE599:
	.size	_ZN4_STL9allocatorIN7IwTween6CTween9ValueTypeEE8allocateEmPKv, .-_ZN4_STL9allocatorIN7IwTween6CTween9ValueTypeEE8allocateEmPKv
	.section	.text._ZN4_STL20__uninitialized_copyIPN7IwTween6CTween9ValueTypeES4_EET0_T_S6_S5_RKNS_12__false_typeE,"axG",%progbits,_ZN4_STL20__uninitialized_copyIPN7IwTween6CTween9ValueTypeES4_EET0_T_S6_S5_RKNS_12__false_typeE,comdat
	.align	2
	.weak	_ZN4_STL20__uninitialized_copyIPN7IwTween6CTween9ValueTypeES4_EET0_T_S6_S5_RKNS_12__false_typeE
	.hidden	_ZN4_STL20__uninitialized_copyIPN7IwTween6CTween9ValueTypeES4_EET0_T_S6_S5_RKNS_12__false_typeE
	.type	_ZN4_STL20__uninitialized_copyIPN7IwTween6CTween9ValueTypeES4_EET0_T_S6_S5_RKNS_12__false_typeE, %function
_ZN4_STL20__uninitialized_copyIPN7IwTween6CTween9ValueTypeES4_EET0_T_S6_S5_RKNS_12__false_typeE:
.LFB600:
	.loc 9 61 0
	.cfi_startproc
	str	x30, [sp, -64]!
.LCFI99:
	.cfi_def_cfa_offset 64
	.cfi_offset 30, -64
	str	x0, [sp, 40]
	str	x1, [sp, 32]
	str	x2, [sp, 24]
	str	x3, [sp, 16]
.LBB79:
	.loc 9 64 0
	ldr	x0, [sp, 24]
	str	x0, [sp, 56]
	.loc 9 66 0
	b	.L384
.L385:
	.loc 9 67 0 discriminator 2
	ldr	x1, [sp, 40]
	ldr	x0, [sp, 56]
	bl	_ZN4_STL10_ConstructIN7IwTween6CTween9ValueTypeES3_EEvPT_RKT0_
	.loc 9 66 0 discriminator 2
	ldr	x0, [sp, 40]
	add	x0, x0, 24
	str	x0, [sp, 40]
	ldr	x0, [sp, 56]
	add	x0, x0, 24
	str	x0, [sp, 56]
.L384:
	.loc 9 66 0 is_stmt 0 discriminator 1
	ldr	x1, [sp, 40]
	ldr	x0, [sp, 32]
	cmp	x1, x0
	bne	.L385
	.loc 9 68 0 is_stmt 1
	ldr	x0, [sp, 56]
.LBE79:
	.loc 9 74 0
	ldr	x30, [sp], 64
	.cfi_restore 30
	ret
	.cfi_endproc
.LFE600:
	.size	_ZN4_STL20__uninitialized_copyIPN7IwTween6CTween9ValueTypeES4_EET0_T_S6_S5_RKNS_12__false_typeE, .-_ZN4_STL20__uninitialized_copyIPN7IwTween6CTween9ValueTypeES4_EET0_T_S6_S5_RKNS_12__false_typeE
	.section	.text._ZN4_STL22__uninitialized_fill_nIPN7IwTween6CTween9ValueTypeEmS3_EET_S5_T0_RKT1_RKNS_12__false_typeE,"axG",%progbits,_ZN4_STL22__uninitialized_fill_nIPN7IwTween6CTween9ValueTypeEmS3_EET_S5_T0_RKT1_RKNS_12__false_typeE,comdat
	.align	2
	.weak	_ZN4_STL22__uninitialized_fill_nIPN7IwTween6CTween9ValueTypeEmS3_EET_S5_T0_RKT1_RKNS_12__false_typeE
	.hidden	_ZN4_STL22__uninitialized_fill_nIPN7IwTween6CTween9ValueTypeEmS3_EET_S5_T0_RKT1_RKNS_12__false_typeE
	.type	_ZN4_STL22__uninitialized_fill_nIPN7IwTween6CTween9ValueTypeEmS3_EET_S5_T0_RKT1_RKNS_12__false_typeE, %function
_ZN4_STL22__uninitialized_fill_nIPN7IwTween6CTween9ValueTypeEmS3_EET_S5_T0_RKT1_RKNS_12__false_typeE:
.LFB601:
	.loc 9 190 0
	.cfi_startproc
	str	x30, [sp, -64]!
.LCFI100:
	.cfi_def_cfa_offset 64
	.cfi_offset 30, -64
	str	x0, [sp, 40]
	str	x1, [sp, 32]
	str	x2, [sp, 24]
	str	x3, [sp, 16]
.LBB80:
	.loc 9 193 0
	ldr	x0, [sp, 40]
	str	x0, [sp, 56]
	.loc 9 195 0
	b	.L388
.L389:
	.loc 9 196 0 discriminator 2
	ldr	x1, [sp, 24]
	ldr	x0, [sp, 56]
	bl	_ZN4_STL10_ConstructIN7IwTween6CTween9ValueTypeES3_EEvPT_RKT0_
	.loc 9 195 0 discriminator 2
	ldr	x0, [sp, 32]
	sub	x0, x0, #1
	str	x0, [sp, 32]
	ldr	x0, [sp, 56]
	add	x0, x0, 24
	str	x0, [sp, 56]
.L388:
	.loc 9 195 0 is_stmt 0 discriminator 1
	ldr	x0, [sp, 32]
	cmp	x0, xzr
	bne	.L389
	.loc 9 197 0 is_stmt 1
	ldr	x0, [sp, 56]
.LBE80:
	.loc 9 203 0
	ldr	x30, [sp], 64
	.cfi_restore 30
	ret
	.cfi_endproc
.LFE601:
	.size	_ZN4_STL22__uninitialized_fill_nIPN7IwTween6CTween9ValueTypeEmS3_EET_S5_T0_RKT1_RKNS_12__false_typeE, .-_ZN4_STL22__uninitialized_fill_nIPN7IwTween6CTween9ValueTypeEmS3_EET_S5_T0_RKT1_RKNS_12__false_typeE
	.section	.text._ZN4_STL6vectorIN7IwTween6CTween9ValueTypeENS_9allocatorIS3_EEE8_M_clearEv,"axG",%progbits,_ZN4_STL6vectorIN7IwTween6CTween9ValueTypeENS_9allocatorIS3_EEE8_M_clearEv,comdat
	.align	2
	.weak	_ZN4_STL6vectorIN7IwTween6CTween9ValueTypeENS_9allocatorIS3_EEE8_M_clearEv
	.hidden	_ZN4_STL6vectorIN7IwTween6CTween9ValueTypeENS_9allocatorIS3_EEE8_M_clearEv
	.type	_ZN4_STL6vectorIN7IwTween6CTween9ValueTypeENS_9allocatorIS3_EEE8_M_clearEv, %function
_ZN4_STL6vectorIN7IwTween6CTween9ValueTypeENS_9allocatorIS3_EEE8_M_clearEv:
.LFB602:
	.loc 6 493 0
	.cfi_startproc
	str	x30, [sp, -32]!
.LCFI101:
	.cfi_def_cfa_offset 32
	.cfi_offset 30, -32
	str	x0, [sp, 24]
	.loc 6 495 0
	ldr	x0, [sp, 24]
	ldr	x2, [x0]
	ldr	x0, [sp, 24]
	ldr	x0, [x0, 8]
	mov	x1, x0
	mov	x0, x2
	bl	_ZN4_STL8_DestroyIPN7IwTween6CTween9ValueTypeEEEvT_S5_
	.loc 6 496 0
	ldr	x0, [sp, 24]
	add	x3, x0, 16
	ldr	x0, [sp, 24]
	ldr	x4, [x0]
	ldr	x0, [sp, 24]
	ldr	x0, [x0, 16]
	mov	x1, x0
	ldr	x0, [sp, 24]
	ldr	x0, [x0]
	sub	x0, x1, x0
	asr	x1, x0, 3
	mov	x0, -6148914691236517206
	add	x0, x0, 1
	mul	x0, x1, x0
	mov	x2, x0
	mov	x1, x4
	mov	x0, x3
	bl	_ZN4_STL9allocatorIN7IwTween6CTween9ValueTypeEE10deallocateEPS3_m
	.loc 6 498 0
	ldr	x30, [sp], 32
	.cfi_restore 30
	ret
	.cfi_endproc
.LFE602:
	.size	_ZN4_STL6vectorIN7IwTween6CTween9ValueTypeENS_9allocatorIS3_EEE8_M_clearEv, .-_ZN4_STL6vectorIN7IwTween6CTween9ValueTypeENS_9allocatorIS3_EEE8_M_clearEv
	.section	.text._ZN4_STL6vectorIN7IwTween6CTween9ValueTypeENS_9allocatorIS3_EEE6_M_setEPS3_S7_S7_,"axG",%progbits,_ZN4_STL6vectorIN7IwTween6CTween9ValueTypeENS_9allocatorIS3_EEE6_M_setEPS3_S7_S7_,comdat
	.align	2
	.weak	_ZN4_STL6vectorIN7IwTween6CTween9ValueTypeENS_9allocatorIS3_EEE6_M_setEPS3_S7_S7_
	.hidden	_ZN4_STL6vectorIN7IwTween6CTween9ValueTypeENS_9allocatorIS3_EEE6_M_setEPS3_S7_S7_
	.type	_ZN4_STL6vectorIN7IwTween6CTween9ValueTypeENS_9allocatorIS3_EEE6_M_setEPS3_S7_S7_, %function
_ZN4_STL6vectorIN7IwTween6CTween9ValueTypeENS_9allocatorIS3_EEE6_M_setEPS3_S7_S7_:
.LFB603:
	.loc 6 500 0
	.cfi_startproc
	sub	sp, sp, #32
.LCFI102:
	.cfi_def_cfa_offset 32
	str	x0, [sp, 24]
	str	x1, [sp, 16]
	str	x2, [sp, 8]
	str	x3, [sp]
	.loc 6 501 0
	ldr	x0, [sp, 24]
	ldr	x1, [sp, 16]
	str	x1, [x0]
	.loc 6 502 0
	ldr	x0, [sp, 24]
	ldr	x1, [sp, 8]
	str	x1, [x0, 8]
	.loc 6 503 0
	ldr	x0, [sp, 24]
	ldr	x1, [sp]
	str	x1, [x0, 16]
	.loc 6 504 0
	add	sp, sp, 32
.LCFI103:
	.cfi_def_cfa_offset 0
	ret
	.cfi_endproc
.LFE603:
	.size	_ZN4_STL6vectorIN7IwTween6CTween9ValueTypeENS_9allocatorIS3_EEE6_M_setEPS3_S7_S7_, .-_ZN4_STL6vectorIN7IwTween6CTween9ValueTypeENS_9allocatorIS3_EEE6_M_setEPS3_S7_S7_
	.section	.text._ZN7IwTween6CTweenaSERKS0_,"axG",%progbits,_ZN7IwTween6CTweenaSERKS0_,comdat
	.align	2
	.weak	_ZN7IwTween6CTweenaSERKS0_
	.hidden	_ZN7IwTween6CTweenaSERKS0_
	.type	_ZN7IwTween6CTweenaSERKS0_, %function
_ZN7IwTween6CTweenaSERKS0_:
.LFB605:
	.loc 2 377 0
	.cfi_startproc
	str	x30, [sp, -32]!
.LCFI104:
	.cfi_def_cfa_offset 32
	.cfi_offset 30, -32
	str	x0, [sp, 24]
	str	x1, [sp, 16]
	.loc 2 377 0
	ldr	x0, [sp, 24]
	ldr	x1, [sp, 16]
	ldp	x2, x3, [x1]
	stp	x2, x3, [x0]
	ldp	x2, x3, [x1, 16]
	stp	x2, x3, [x0, 16]
	ldp	x1, x2, [x1, 32]
	stp	x1, x2, [x0, 32]
	ldr	x0, [sp, 16]
	ldr	w1, [x0, 48]
	ldr	x0, [sp, 24]
	str	w1, [x0, 48]
	ldr	x0, [sp, 16]
	ldrb	w1, [x0, 52]
	ldr	x0, [sp, 24]
	strb	w1, [x0, 52]
	ldr	x0, [sp, 16]
	ldrb	w1, [x0, 53]
	ldr	x0, [sp, 24]
	strb	w1, [x0, 53]
	ldr	x0, [sp, 16]
	ldrb	w1, [x0, 54]
	ldr	x0, [sp, 24]
	strb	w1, [x0, 54]
	ldr	x0, [sp, 16]
	ldrb	w1, [x0, 55]
	ldr	x0, [sp, 24]
	strb	w1, [x0, 55]
	ldr	x0, [sp, 16]
	ldr	w1, [x0, 56]
	ldr	x0, [sp, 24]
	str	w1, [x0, 56]
	ldr	x0, [sp, 24]
	add	x2, x0, 64
	ldr	x0, [sp, 16]
	add	x0, x0, 64
	mov	x1, x0
	mov	x0, x2
	bl	_ZN4_STL6vectorIN7IwTween6CTween9ValueTypeENS_9allocatorIS3_EEEaSERKS6_
	ldr	x0, [sp, 16]
	ldr	x1, [x0, 88]
	ldr	x0, [sp, 24]
	str	x1, [x0, 88]
	ldr	x0, [sp, 24]
	ldr	x30, [sp], 32
	.cfi_restore 30
	ret
	.cfi_endproc
.LFE605:
	.size	_ZN7IwTween6CTweenaSERKS0_, .-_ZN7IwTween6CTweenaSERKS0_
	.section	.text._ZN4_STL6__copyIPN7IwTween6CTweenES3_lEET0_T_S5_S4_RKNS_26random_access_iterator_tagEPT1_,"axG",%progbits,_ZN4_STL6__copyIPN7IwTween6CTweenES3_lEET0_T_S5_S4_RKNS_26random_access_iterator_tagEPT1_,comdat
	.align	2
	.weak	_ZN4_STL6__copyIPN7IwTween6CTweenES3_lEET0_T_S5_S4_RKNS_26random_access_iterator_tagEPT1_
	.hidden	_ZN4_STL6__copyIPN7IwTween6CTweenES3_lEET0_T_S5_S4_RKNS_26random_access_iterator_tagEPT1_
	.type	_ZN4_STL6__copyIPN7IwTween6CTweenES3_lEET0_T_S5_S4_RKNS_26random_access_iterator_tagEPT1_, %function
_ZN4_STL6__copyIPN7IwTween6CTweenES3_lEET0_T_S5_S4_RKNS_26random_access_iterator_tagEPT1_:
.LFB604:
	.loc 7 136 0
	.cfi_startproc
	str	x30, [sp, -80]!
.LCFI105:
	.cfi_def_cfa_offset 80
	.cfi_offset 30, -80
	str	x0, [sp, 56]
	str	x1, [sp, 48]
	str	x2, [sp, 40]
	str	x3, [sp, 32]
	str	x4, [sp, 24]
.LBB81:
.LBB82:
	.loc 7 138 0
	ldr	x1, [sp, 48]
	ldr	x0, [sp, 56]
	sub	x0, x1, x0
	asr	x1, x0, 5
	mov	x0, -6148914691236517206
	add	x0, x0, 1
	mul	x0, x1, x0
	str	x0, [sp, 72]
	b	.L396
.L397:
	.loc 7 139 0 discriminator 3
	ldr	x1, [sp, 56]
	ldr	x0, [sp, 40]
	bl	_ZN7IwTween6CTweenaSERKS0_
	.loc 7 140 0 discriminator 3
	ldr	x0, [sp, 56]
	add	x0, x0, 96
	str	x0, [sp, 56]
	.loc 7 141 0 discriminator 3
	ldr	x0, [sp, 40]
	add	x0, x0, 96
	str	x0, [sp, 40]
	.loc 7 138 0 discriminator 3
	ldr	x0, [sp, 72]
	sub	x0, x0, #1
	str	x0, [sp, 72]
.L396:
	.loc 7 138 0 is_stmt 0 discriminator 1
	ldr	x0, [sp, 72]
	cmp	x0, xzr
	bgt	.L397
.LBE82:
	.loc 7 143 0 is_stmt 1
	ldr	x0, [sp, 40]
.LBE81:
	.loc 7 144 0
	ldr	x30, [sp], 80
	.cfi_restore 30
	ret
	.cfi_endproc
.LFE604:
	.size	_ZN4_STL6__copyIPN7IwTween6CTweenES3_lEET0_T_S5_S4_RKNS_26random_access_iterator_tagEPT1_, .-_ZN4_STL6__copyIPN7IwTween6CTweenES3_lEET0_T_S5_S4_RKNS_26random_access_iterator_tagEPT1_
	.section	.text._ZN4_STL9allocatorIN7IwTween6CTween9ValueTypeEEC2ERKS4_,"axG",%progbits,_ZN4_STL9allocatorIN7IwTween6CTween9ValueTypeEEC5ERKS4_,comdat
	.align	2
	.weak	_ZN4_STL9allocatorIN7IwTween6CTween9ValueTypeEEC2ERKS4_
	.hidden	_ZN4_STL9allocatorIN7IwTween6CTween9ValueTypeEEC2ERKS4_
	.type	_ZN4_STL9allocatorIN7IwTween6CTween9ValueTypeEEC2ERKS4_, %function
_ZN4_STL9allocatorIN7IwTween6CTween9ValueTypeEEC2ERKS4_:
.LFB607:
	.loc 5 349 0
	.cfi_startproc
	sub	sp, sp, #16
.LCFI106:
	.cfi_def_cfa_offset 16
	str	x0, [sp, 8]
	str	x1, [sp]
	.loc 5 349 0
	add	sp, sp, 16
.LCFI107:
	.cfi_def_cfa_offset 0
	ret
	.cfi_endproc
.LFE607:
	.size	_ZN4_STL9allocatorIN7IwTween6CTween9ValueTypeEEC2ERKS4_, .-_ZN4_STL9allocatorIN7IwTween6CTween9ValueTypeEEC2ERKS4_
	.weak	_ZN4_STL9allocatorIN7IwTween6CTween9ValueTypeEEC1ERKS4_
	.hidden	_ZN4_STL9allocatorIN7IwTween6CTween9ValueTypeEEC1ERKS4_
_ZN4_STL9allocatorIN7IwTween6CTween9ValueTypeEEC1ERKS4_ = _ZN4_STL9allocatorIN7IwTween6CTween9ValueTypeEEC2ERKS4_
	.section	.text._ZN4_STL14__malloc_allocILi0EE10deallocateEPvm,"axG",%progbits,_ZN4_STL14__malloc_allocILi0EE10deallocateEPvm,comdat
	.align	2
	.weak	_ZN4_STL14__malloc_allocILi0EE10deallocateEPvm
	.hidden	_ZN4_STL14__malloc_allocILi0EE10deallocateEPvm
	.type	_ZN4_STL14__malloc_allocILi0EE10deallocateEPvm, %function
_ZN4_STL14__malloc_allocILi0EE10deallocateEPvm:
.LFB609:
	.loc 5 114 0
	.cfi_startproc
	str	x30, [sp, -32]!
.LCFI108:
	.cfi_def_cfa_offset 32
	.cfi_offset 30, -32
	str	x0, [sp, 24]
	str	x1, [sp, 16]
	.loc 5 114 0
	ldr	x0, [sp, 24]
	bl	free
	ldr	x30, [sp], 32
	.cfi_restore 30
	ret
	.cfi_endproc
.LFE609:
	.size	_ZN4_STL14__malloc_allocILi0EE10deallocateEPvm, .-_ZN4_STL14__malloc_allocILi0EE10deallocateEPvm
	.section	.text._ZN4_STL13__destroy_auxIPN7IwTween6CTween9ValueTypeEEEvT_S5_RKNS_12__false_typeE,"axG",%progbits,_ZN4_STL13__destroy_auxIPN7IwTween6CTween9ValueTypeEEEvT_S5_RKNS_12__false_typeE,comdat
	.align	2
	.weak	_ZN4_STL13__destroy_auxIPN7IwTween6CTween9ValueTypeEEEvT_S5_RKNS_12__false_typeE
	.hidden	_ZN4_STL13__destroy_auxIPN7IwTween6CTween9ValueTypeEEEvT_S5_RKNS_12__false_typeE
	.type	_ZN4_STL13__destroy_auxIPN7IwTween6CTween9ValueTypeEEEvT_S5_RKNS_12__false_typeE, %function
_ZN4_STL13__destroy_auxIPN7IwTween6CTween9ValueTypeEEEvT_S5_RKNS_12__false_typeE:
.LFB610:
	.loc 8 122 0
	.cfi_startproc
	str	x30, [sp, -48]!
.LCFI109:
	.cfi_def_cfa_offset 48
	.cfi_offset 30, -48
	str	x0, [sp, 40]
	str	x1, [sp, 32]
	str	x2, [sp, 24]
	.loc 8 123 0
	b	.L402
.L403:
	.loc 8 124 0 discriminator 2
	ldr	x0, [sp, 40]
	bl	_ZN4_STL8_DestroyIN7IwTween6CTween9ValueTypeEEEvPT_
	.loc 8 123 0 discriminator 2
	ldr	x0, [sp, 40]
	add	x0, x0, 24
	str	x0, [sp, 40]
.L402:
	.loc 8 123 0 is_stmt 0 discriminator 1
	ldr	x1, [sp, 40]
	ldr	x0, [sp, 32]
	cmp	x1, x0
	bne	.L403
	.loc 8 125 0 is_stmt 1
	ldr	x30, [sp], 48
	.cfi_restore 30
	ret
	.cfi_endproc
.LFE610:
	.size	_ZN4_STL13__destroy_auxIPN7IwTween6CTween9ValueTypeEEEvT_S5_RKNS_12__false_typeE, .-_ZN4_STL13__destroy_auxIPN7IwTween6CTween9ValueTypeEEEvT_S5_RKNS_12__false_typeE
	.section	.text._ZN4_STL13__destroy_auxIPN7IwTween6CTweenEEEvT_S4_RKNS_12__false_typeE,"axG",%progbits,_ZN4_STL13__destroy_auxIPN7IwTween6CTweenEEEvT_S4_RKNS_12__false_typeE,comdat
	.align	2
	.weak	_ZN4_STL13__destroy_auxIPN7IwTween6CTweenEEEvT_S4_RKNS_12__false_typeE
	.hidden	_ZN4_STL13__destroy_auxIPN7IwTween6CTweenEEEvT_S4_RKNS_12__false_typeE
	.type	_ZN4_STL13__destroy_auxIPN7IwTween6CTweenEEEvT_S4_RKNS_12__false_typeE, %function
_ZN4_STL13__destroy_auxIPN7IwTween6CTweenEEEvT_S4_RKNS_12__false_typeE:
.LFB614:
	.loc 8 122 0
	.cfi_startproc
	str	x30, [sp, -48]!
.LCFI110:
	.cfi_def_cfa_offset 48
	.cfi_offset 30, -48
	str	x0, [sp, 40]
	str	x1, [sp, 32]
	str	x2, [sp, 24]
	.loc 8 123 0
	b	.L405
.L406:
	.loc 8 124 0 discriminator 2
	ldr	x0, [sp, 40]
	bl	_ZN4_STL8_DestroyIN7IwTween6CTweenEEEvPT_
	.loc 8 123 0 discriminator 2
	ldr	x0, [sp, 40]
	add	x0, x0, 96
	str	x0, [sp, 40]
.L405:
	.loc 8 123 0 is_stmt 0 discriminator 1
	ldr	x1, [sp, 40]
	ldr	x0, [sp, 32]
	cmp	x1, x0
	bne	.L406
	.loc 8 125 0 is_stmt 1
	ldr	x30, [sp], 48
	.cfi_restore 30
	ret
	.cfi_endproc
.LFE614:
	.size	_ZN4_STL13__destroy_auxIPN7IwTween6CTweenEEEvT_S4_RKNS_12__false_typeE, .-_ZN4_STL13__destroy_auxIPN7IwTween6CTweenEEEvT_S4_RKNS_12__false_typeE
	.section	.text._ZNK4_STL6vectorIN7IwTween6CTween9ValueTypeENS_9allocatorIS3_EEE13get_allocatorEv,"axG",%progbits,_ZNK4_STL6vectorIN7IwTween6CTween9ValueTypeENS_9allocatorIS3_EEE13get_allocatorEv,comdat
	.align	2
	.weak	_ZNK4_STL6vectorIN7IwTween6CTween9ValueTypeENS_9allocatorIS3_EEE13get_allocatorEv
	.hidden	_ZNK4_STL6vectorIN7IwTween6CTween9ValueTypeENS_9allocatorIS3_EEE13get_allocatorEv
	.type	_ZNK4_STL6vectorIN7IwTween6CTween9ValueTypeENS_9allocatorIS3_EEE13get_allocatorEv, %function
_ZNK4_STL6vectorIN7IwTween6CTween9ValueTypeENS_9allocatorIS3_EEE13get_allocatorEv:
.LFB615:
	.loc 6 117 0
	.cfi_startproc
	stp	x19, x30, [sp, -32]!
.LCFI111:
	.cfi_def_cfa_offset 32
	.cfi_offset 19, -32
	.cfi_offset 30, -24
	mov	x19, x8
	str	x0, [sp, 24]
	.loc 6 118 0
	ldr	x0, [sp, 24]
	add	x0, x0, 16
	mov	x1, x0
	mov	x0, x19
	bl	_ZN4_STL9allocatorIN7IwTween6CTween9ValueTypeEEC1ERKS4_
	.loc 6 119 0
	mov	x0, x19
	mov	x0, x19
	ldp	x19, x30, [sp], 32
	.cfi_restore 30
	.cfi_restore 19
	ret
	.cfi_endproc
.LFE615:
	.size	_ZNK4_STL6vectorIN7IwTween6CTween9ValueTypeENS_9allocatorIS3_EEE13get_allocatorEv, .-_ZNK4_STL6vectorIN7IwTween6CTween9ValueTypeENS_9allocatorIS3_EEE13get_allocatorEv
	.section	.text._ZN4_STL12_Vector_baseIN7IwTween6CTween9ValueTypeENS_9allocatorIS3_EEEC2EmRKS5_,"axG",%progbits,_ZN4_STL12_Vector_baseIN7IwTween6CTween9ValueTypeENS_9allocatorIS3_EEEC5EmRKS5_,comdat
	.align	2
	.weak	_ZN4_STL12_Vector_baseIN7IwTween6CTween9ValueTypeENS_9allocatorIS3_EEEC2EmRKS5_
	.hidden	_ZN4_STL12_Vector_baseIN7IwTween6CTween9ValueTypeENS_9allocatorIS3_EEEC2EmRKS5_
	.type	_ZN4_STL12_Vector_baseIN7IwTween6CTween9ValueTypeENS_9allocatorIS3_EEEC2EmRKS5_, %function
_ZN4_STL12_Vector_baseIN7IwTween6CTween9ValueTypeENS_9allocatorIS3_EEEC2EmRKS5_:
.LFB617:
	.loc 6 74 0
	.cfi_startproc
	str	x30, [sp, -48]!
.LCFI112:
	.cfi_def_cfa_offset 48
	.cfi_offset 30, -48
	str	x0, [sp, 40]
	str	x1, [sp, 32]
	str	x2, [sp, 24]
.LBB83:
	.loc 6 75 0
	ldr	x0, [sp, 40]
	str	xzr, [x0]
	ldr	x0, [sp, 40]
	str	xzr, [x0, 8]
	ldr	x0, [sp, 40]
	add	x0, x0, 16
	mov	x2, 0
	ldr	x1, [sp, 24]
	bl	_ZN4_STL17_STLP_alloc_proxyIPN7IwTween6CTween9ValueTypeES3_NS_9allocatorIS3_EEEC1ERKS6_S4_
	.loc 6 77 0
	ldr	x0, [sp, 40]
	add	x0, x0, 16
	mov	x2, 0
	ldr	x1, [sp, 32]
	bl	_ZN4_STL9allocatorIN7IwTween6CTween9ValueTypeEE8allocateEmPKv
	mov	x1, x0
	ldr	x0, [sp, 40]
	str	x1, [x0]
	.loc 6 78 0
	ldr	x0, [sp, 40]
	ldr	x1, [x0]
	ldr	x0, [sp, 40]
	str	x1, [x0, 8]
	.loc 6 79 0
	ldr	x0, [sp, 40]
	ldr	x2, [x0]
	ldr	x1, [sp, 32]
	mov	x0, x1
	lsl	x0, x0, 2
	sub	x0, x0, x1
	lsl	x0, x0, 3
	add	x1, x2, x0
	ldr	x0, [sp, 40]
	str	x1, [x0, 16]
.LBE83:
	.loc 6 81 0
	ldr	x30, [sp], 48
	.cfi_restore 30
	ret
	.cfi_endproc
.LFE617:
	.size	_ZN4_STL12_Vector_baseIN7IwTween6CTween9ValueTypeENS_9allocatorIS3_EEEC2EmRKS5_, .-_ZN4_STL12_Vector_baseIN7IwTween6CTween9ValueTypeENS_9allocatorIS3_EEEC2EmRKS5_
	.weak	_ZN4_STL12_Vector_baseIN7IwTween6CTween9ValueTypeENS_9allocatorIS3_EEEC1EmRKS5_
	.hidden	_ZN4_STL12_Vector_baseIN7IwTween6CTween9ValueTypeENS_9allocatorIS3_EEEC1EmRKS5_
_ZN4_STL12_Vector_baseIN7IwTween6CTween9ValueTypeENS_9allocatorIS3_EEEC1EmRKS5_ = _ZN4_STL12_Vector_baseIN7IwTween6CTween9ValueTypeENS_9allocatorIS3_EEEC2EmRKS5_
	.section	.text._ZN4_STL20__uninitialized_copyIPKN7IwTween6CTween9ValueTypeEPS3_EET0_T_S8_S7_RKNS_12__false_typeE,"axG",%progbits,_ZN4_STL20__uninitialized_copyIPKN7IwTween6CTween9ValueTypeEPS3_EET0_T_S8_S7_RKNS_12__false_typeE,comdat
	.align	2
	.weak	_ZN4_STL20__uninitialized_copyIPKN7IwTween6CTween9ValueTypeEPS3_EET0_T_S8_S7_RKNS_12__false_typeE
	.hidden	_ZN4_STL20__uninitialized_copyIPKN7IwTween6CTween9ValueTypeEPS3_EET0_T_S8_S7_RKNS_12__false_typeE
	.type	_ZN4_STL20__uninitialized_copyIPKN7IwTween6CTween9ValueTypeEPS3_EET0_T_S8_S7_RKNS_12__false_typeE, %function
_ZN4_STL20__uninitialized_copyIPKN7IwTween6CTween9ValueTypeEPS3_EET0_T_S8_S7_RKNS_12__false_typeE:
.LFB619:
	.loc 9 61 0
	.cfi_startproc
	str	x30, [sp, -64]!
.LCFI113:
	.cfi_def_cfa_offset 64
	.cfi_offset 30, -64
	str	x0, [sp, 40]
	str	x1, [sp, 32]
	str	x2, [sp, 24]
	str	x3, [sp, 16]
.LBB84:
	.loc 9 64 0
	ldr	x0, [sp, 24]
	str	x0, [sp, 56]
	.loc 9 66 0
	b	.L411
.L412:
	.loc 9 67 0 discriminator 2
	ldr	x1, [sp, 40]
	ldr	x0, [sp, 56]
	bl	_ZN4_STL10_ConstructIN7IwTween6CTween9ValueTypeES3_EEvPT_RKT0_
	.loc 9 66 0 discriminator 2
	ldr	x0, [sp, 40]
	add	x0, x0, 24
	str	x0, [sp, 40]
	ldr	x0, [sp, 56]
	add	x0, x0, 24
	str	x0, [sp, 56]
.L411:
	.loc 9 66 0 is_stmt 0 discriminator 1
	ldr	x1, [sp, 40]
	ldr	x0, [sp, 32]
	cmp	x1, x0
	bne	.L412
	.loc 9 68 0 is_stmt 1
	ldr	x0, [sp, 56]
.LBE84:
	.loc 9 74 0
	ldr	x30, [sp], 64
	.cfi_restore 30
	ret
	.cfi_endproc
.LFE619:
	.size	_ZN4_STL20__uninitialized_copyIPKN7IwTween6CTween9ValueTypeEPS3_EET0_T_S8_S7_RKNS_12__false_typeE, .-_ZN4_STL20__uninitialized_copyIPKN7IwTween6CTween9ValueTypeEPS3_EET0_T_S8_S7_RKNS_12__false_typeE
	.section	.text._ZN4_STL14__malloc_allocILi0EE8allocateEm,"axG",%progbits,_ZN4_STL14__malloc_allocILi0EE8allocateEm,comdat
	.align	2
	.weak	_ZN4_STL14__malloc_allocILi0EE8allocateEm
	.hidden	_ZN4_STL14__malloc_allocILi0EE8allocateEm
	.type	_ZN4_STL14__malloc_allocILi0EE8allocateEm, %function
_ZN4_STL14__malloc_allocILi0EE8allocateEm:
.LFB620:
	.loc 5 109 0
	.cfi_startproc
	str	x30, [sp, -48]!
.LCFI114:
	.cfi_def_cfa_offset 48
	.cfi_offset 30, -48
	str	x0, [sp, 24]
.LBB85:
	.loc 5 110 0
	ldr	x0, [sp, 24]
	bl	malloc
	str	x0, [sp, 40]
	.loc 5 111 0
	ldr	x0, [sp, 40]
	cmp	x0, xzr
	bne	.L415
	.loc 5 111 0 is_stmt 0 discriminator 1
	ldr	x0, [sp, 24]
	bl	_ZN4_STL14__malloc_allocILi0EE13_S_oom_mallocEm
	str	x0, [sp, 40]
.L415:
	.loc 5 112 0 is_stmt 1
	ldr	x0, [sp, 40]
.LBE85:
	.loc 5 113 0
	ldr	x30, [sp], 48
	.cfi_restore 30
	ret
	.cfi_endproc
.LFE620:
	.size	_ZN4_STL14__malloc_allocILi0EE8allocateEm, .-_ZN4_STL14__malloc_allocILi0EE8allocateEm
	.section	.text._ZN4_STL6vectorIN7IwTween6CTween9ValueTypeENS_9allocatorIS3_EEEaSERKS6_,"axG",%progbits,_ZN4_STL6vectorIN7IwTween6CTween9ValueTypeENS_9allocatorIS3_EEEaSERKS6_,comdat
	.align	2
	.weak	_ZN4_STL6vectorIN7IwTween6CTween9ValueTypeENS_9allocatorIS3_EEEaSERKS6_
	.hidden	_ZN4_STL6vectorIN7IwTween6CTween9ValueTypeENS_9allocatorIS3_EEEaSERKS6_
	.type	_ZN4_STL6vectorIN7IwTween6CTween9ValueTypeENS_9allocatorIS3_EEEaSERKS6_, %function
_ZN4_STL6vectorIN7IwTween6CTween9ValueTypeENS_9allocatorIS3_EEEaSERKS6_:
.LFB621:
	.file 10 "e:/7.10/s3e/h/std/c++/stl/_vector.c"
	.loc 10 92 0
	.cfi_startproc
	stp	x19, x20, [sp, -96]!
.LCFI115:
	.cfi_def_cfa_offset 96
	.cfi_offset 19, -96
	.cfi_offset 20, -88
	str	x30, [sp, 16]
	.cfi_offset 30, -80
	str	x0, [sp, 40]
	str	x1, [sp, 32]
.LBB86:
.LBB87:
	.loc 10 94 0
	ldr	x1, [sp, 32]
	ldr	x0, [sp, 40]
	cmp	x1, x0
	beq	.L418
.LBB88:
	.loc 10 95 0
	ldr	x0, [sp, 32]
	bl	_ZNK4_STL6vectorIN7IwTween6CTween9ValueTypeENS_9allocatorIS3_EEE4sizeEv
	str	x0, [sp, 88]
.LBB89:
	.loc 10 96 0
	ldr	x0, [sp, 40]
	bl	_ZNK4_STL6vectorIN7IwTween6CTween9ValueTypeENS_9allocatorIS3_EEE8capacityEv
	mov	x1, x0
	ldr	x0, [sp, 88]
	cmp	x1, x0
	cset	w0, cc
	uxtb	w0, w0
	cmp	w0, wzr
	beq	.L419
.LBB90:
	.loc 10 97 0
	ldr	x0, [sp, 32]
	ldr	x1, [x0]
	ldr	x0, [sp, 32]
	ldr	x0, [x0, 8]
	mov	x3, x0
	mov	x2, x1
	ldr	x1, [sp, 88]
	ldr	x0, [sp, 40]
	bl	_ZN4_STL6vectorIN7IwTween6CTween9ValueTypeENS_9allocatorIS3_EEE20_M_allocate_and_copyIPKS3_EEPS3_mT_SB_
	str	x0, [sp, 80]
	.loc 10 98 0
	ldr	x0, [sp, 40]
	bl	_ZN4_STL6vectorIN7IwTween6CTween9ValueTypeENS_9allocatorIS3_EEE8_M_clearEv
	.loc 10 99 0
	ldr	x0, [sp, 40]
	ldr	x1, [sp, 80]
	str	x1, [x0]
	.loc 10 100 0
	ldr	x0, [sp, 40]
	ldr	x2, [x0]
	ldr	x1, [sp, 88]
	mov	x0, x1
	lsl	x0, x0, 2
	sub	x0, x0, x1
	lsl	x0, x0, 3
	add	x1, x2, x0
	ldr	x0, [sp, 40]
	str	x1, [x0, 16]
.LBE90:
	b	.L420
.L419:
.LBB91:
.LBB92:
	.loc 10 102 0
	ldr	x0, [sp, 40]
	bl	_ZNK4_STL6vectorIN7IwTween6CTween9ValueTypeENS_9allocatorIS3_EEE4sizeEv
	mov	x1, x0
	ldr	x0, [sp, 88]
	cmp	x1, x0
	cset	w0, cs
	uxtb	w0, w0
	cmp	w0, wzr
	beq	.L421
.LBB93:
	.loc 10 103 0
	ldr	x0, [sp, 32]
	ldr	x4, [x0]
	ldr	x0, [sp, 32]
	ldr	x1, [x0, 8]
	ldr	x0, [sp, 40]
	ldr	x0, [x0]
	add	x2, sp, 48
	mov	x3, x2
	mov	x2, x0
	mov	x0, x4
	bl	_ZN4_STL11__copy_ptrsIPKN7IwTween6CTween9ValueTypeEPS3_EET0_T_S8_S7_RKNS_12__false_typeE
	str	x0, [sp, 72]
	.loc 10 104 0
	ldr	x0, [sp, 40]
	ldr	x0, [x0, 8]
	mov	x1, x0
	ldr	x0, [sp, 72]
	bl	_ZN4_STL8_DestroyIPN7IwTween6CTween9ValueTypeEEEvT_S5_
.LBE93:
	b	.L420
.L421:
	.loc 10 107 0
	ldr	x0, [sp, 32]
	ldr	x20, [x0]
	ldr	x0, [sp, 32]
	ldr	x19, [x0]
	ldr	x0, [sp, 40]
	bl	_ZNK4_STL6vectorIN7IwTween6CTween9ValueTypeENS_9allocatorIS3_EEE4sizeEv
	mov	x1, x0
	mov	x0, x1
	lsl	x0, x0, 2
	sub	x0, x0, x1
	lsl	x0, x0, 3
	add	x1, x19, x0
	ldr	x0, [sp, 40]
	ldr	x0, [x0]
	add	x2, sp, 56
	mov	x3, x2
	mov	x2, x0
	mov	x0, x20
	bl	_ZN4_STL11__copy_ptrsIPKN7IwTween6CTween9ValueTypeEPS3_EET0_T_S8_S7_RKNS_12__false_typeE
	.loc 10 108 0
	ldr	x0, [sp, 32]
	ldr	x19, [x0]
	ldr	x0, [sp, 40]
	bl	_ZNK4_STL6vectorIN7IwTween6CTween9ValueTypeENS_9allocatorIS3_EEE4sizeEv
	mov	x1, x0
	mov	x0, x1
	lsl	x0, x0, 2
	sub	x0, x0, x1
	lsl	x0, x0, 3
	add	x4, x19, x0
	ldr	x0, [sp, 32]
	ldr	x1, [x0, 8]
	ldr	x0, [sp, 40]
	ldr	x0, [x0, 8]
	add	x2, sp, 64
	mov	x3, x2
	mov	x2, x0
	mov	x0, x4
	bl	_ZN4_STL20__uninitialized_copyIPKN7IwTween6CTween9ValueTypeEPS3_EET0_T_S8_S7_RKNS_12__false_typeE
.L420:
.LBE92:
.LBE91:
.LBE89:
	.loc 10 110 0
	ldr	x0, [sp, 40]
	ldr	x2, [x0]
	ldr	x1, [sp, 88]
	mov	x0, x1
	lsl	x0, x0, 2
	sub	x0, x0, x1
	lsl	x0, x0, 3
	add	x1, x2, x0
	ldr	x0, [sp, 40]
	str	x1, [x0, 8]
.L418:
.LBE88:
.LBE87:
	.loc 10 112 0
	ldr	x0, [sp, 40]
.LBE86:
	.loc 10 113 0
	ldr	x30, [sp, 16]
	.cfi_restore 30
	ldp	x19, x20, [sp], 96
	.cfi_restore 20
	.cfi_restore 19
	ret
	.cfi_endproc
.LFE621:
	.size	_ZN4_STL6vectorIN7IwTween6CTween9ValueTypeENS_9allocatorIS3_EEEaSERKS6_, .-_ZN4_STL6vectorIN7IwTween6CTween9ValueTypeENS_9allocatorIS3_EEEaSERKS6_
	.section	.text._ZN4_STL8_DestroyIN7IwTween6CTween9ValueTypeEEEvPT_,"axG",%progbits,_ZN4_STL8_DestroyIN7IwTween6CTween9ValueTypeEEEvPT_,comdat
	.align	2
	.weak	_ZN4_STL8_DestroyIN7IwTween6CTween9ValueTypeEEEvPT_
	.hidden	_ZN4_STL8_DestroyIN7IwTween6CTween9ValueTypeEEEvPT_
	.type	_ZN4_STL8_DestroyIN7IwTween6CTween9ValueTypeEEEvPT_, %function
_ZN4_STL8_DestroyIN7IwTween6CTween9ValueTypeEEEvPT_:
.LFB622:
	.loc 8 56 0
	.cfi_startproc
	sub	sp, sp, #16
.LCFI116:
	.cfi_def_cfa_offset 16
	str	x0, [sp, 8]
	.loc 8 73 0
	add	sp, sp, 16
.LCFI117:
	.cfi_def_cfa_offset 0
	ret
	.cfi_endproc
.LFE622:
	.size	_ZN4_STL8_DestroyIN7IwTween6CTween9ValueTypeEEEvPT_, .-_ZN4_STL8_DestroyIN7IwTween6CTween9ValueTypeEEEvPT_
	.section	.text._ZNK4_STL6vectorIN7IwTween6CTween9ValueTypeENS_9allocatorIS3_EEE8capacityEv,"axG",%progbits,_ZNK4_STL6vectorIN7IwTween6CTween9ValueTypeENS_9allocatorIS3_EEE8capacityEv,comdat
	.align	2
	.weak	_ZNK4_STL6vectorIN7IwTween6CTween9ValueTypeENS_9allocatorIS3_EEE8capacityEv
	.hidden	_ZNK4_STL6vectorIN7IwTween6CTween9ValueTypeENS_9allocatorIS3_EEE8capacityEv
	.type	_ZNK4_STL6vectorIN7IwTween6CTween9ValueTypeENS_9allocatorIS3_EEE8capacityEv, %function
_ZNK4_STL6vectorIN7IwTween6CTween9ValueTypeENS_9allocatorIS3_EEE8capacityEv:
.LFB623:
	.loc 6 184 0
	.cfi_startproc
	sub	sp, sp, #16
.LCFI118:
	.cfi_def_cfa_offset 16
	str	x0, [sp, 8]
	.loc 6 184 0
	ldr	x0, [sp, 8]
	ldr	x0, [x0, 16]
	mov	x1, x0
	ldr	x0, [sp, 8]
	ldr	x0, [x0]
	sub	x0, x1, x0
	asr	x1, x0, 3
	mov	x0, -6148914691236517206
	add	x0, x0, 1
	mul	x0, x1, x0
	add	sp, sp, 16
.LCFI119:
	.cfi_def_cfa_offset 0
	ret
	.cfi_endproc
.LFE623:
	.size	_ZNK4_STL6vectorIN7IwTween6CTween9ValueTypeENS_9allocatorIS3_EEE8capacityEv, .-_ZNK4_STL6vectorIN7IwTween6CTween9ValueTypeENS_9allocatorIS3_EEE8capacityEv
	.section	.text._ZN4_STL6vectorIN7IwTween6CTween9ValueTypeENS_9allocatorIS3_EEE20_M_allocate_and_copyIPKS3_EEPS3_mT_SB_,"axG",%progbits,_ZN4_STL6vectorIN7IwTween6CTween9ValueTypeENS_9allocatorIS3_EEE20_M_allocate_and_copyIPKS3_EEPS3_mT_SB_,comdat
	.align	2
	.weak	_ZN4_STL6vectorIN7IwTween6CTween9ValueTypeENS_9allocatorIS3_EEE20_M_allocate_and_copyIPKS3_EEPS3_mT_SB_
	.hidden	_ZN4_STL6vectorIN7IwTween6CTween9ValueTypeENS_9allocatorIS3_EEE20_M_allocate_and_copyIPKS3_EEPS3_mT_SB_
	.type	_ZN4_STL6vectorIN7IwTween6CTween9ValueTypeENS_9allocatorIS3_EEE20_M_allocate_and_copyIPKS3_EEPS3_mT_SB_, %function
_ZN4_STL6vectorIN7IwTween6CTween9ValueTypeENS_9allocatorIS3_EEE20_M_allocate_and_copyIPKS3_EEPS3_mT_SB_:
.LFB624:
	.loc 6 508 0
	.cfi_startproc
	str	x30, [sp, -64]!
.LCFI120:
	.cfi_def_cfa_offset 64
	.cfi_offset 30, -64
	str	x0, [sp, 40]
	str	x1, [sp, 32]
	str	x2, [sp, 24]
	str	x3, [sp, 16]
.LBB94:
	.loc 6 515 0
	ldr	x0, [sp, 40]
	add	x0, x0, 16
	mov	x2, 0
	ldr	x1, [sp, 32]
	bl	_ZN4_STL9allocatorIN7IwTween6CTween9ValueTypeEE8allocateEmPKv
	str	x0, [sp, 56]
	.loc 6 518 0
	add	x0, sp, 48
	mov	x3, x0
	ldr	x2, [sp, 56]
	ldr	x1, [sp, 16]
	ldr	x0, [sp, 24]
	bl	_ZN4_STL20__uninitialized_copyIPKN7IwTween6CTween9ValueTypeEPS3_EET0_T_S8_S7_RKNS_12__false_typeE
	.loc 6 522 0
	ldr	x0, [sp, 56]
.LBE94:
	.loc 6 528 0
	ldr	x30, [sp], 64
	.cfi_restore 30
	ret
	.cfi_endproc
.LFE624:
	.size	_ZN4_STL6vectorIN7IwTween6CTween9ValueTypeENS_9allocatorIS3_EEE20_M_allocate_and_copyIPKS3_EEPS3_mT_SB_, .-_ZN4_STL6vectorIN7IwTween6CTween9ValueTypeENS_9allocatorIS3_EEE20_M_allocate_and_copyIPKS3_EEPS3_mT_SB_
	.section	.text._ZN4_STL11__copy_ptrsIPKN7IwTween6CTween9ValueTypeEPS3_EET0_T_S8_S7_RKNS_12__false_typeE,"axG",%progbits,_ZN4_STL11__copy_ptrsIPKN7IwTween6CTween9ValueTypeEPS3_EET0_T_S8_S7_RKNS_12__false_typeE,comdat
	.align	2
	.weak	_ZN4_STL11__copy_ptrsIPKN7IwTween6CTween9ValueTypeEPS3_EET0_T_S8_S7_RKNS_12__false_typeE
	.hidden	_ZN4_STL11__copy_ptrsIPKN7IwTween6CTween9ValueTypeEPS3_EET0_T_S8_S7_RKNS_12__false_typeE
	.type	_ZN4_STL11__copy_ptrsIPKN7IwTween6CTween9ValueTypeEPS3_EET0_T_S8_S7_RKNS_12__false_typeE, %function
_ZN4_STL11__copy_ptrsIPKN7IwTween6CTween9ValueTypeEPS3_EET0_T_S8_S7_RKNS_12__false_typeE:
.LFB625:
	.loc 7 188 0
	.cfi_startproc
	str	x30, [sp, -64]!
.LCFI121:
	.cfi_def_cfa_offset 64
	.cfi_offset 30, -64
	str	x0, [sp, 40]
	str	x1, [sp, 32]
	str	x2, [sp, 24]
	str	x3, [sp, 16]
	.loc 7 191 0
	add	x0, sp, 56
	mov	x4, 0
	mov	x3, x0
	ldr	x2, [sp, 24]
	ldr	x1, [sp, 32]
	ldr	x0, [sp, 40]
	bl	_ZN4_STL6__copyIPKN7IwTween6CTween9ValueTypeEPS3_lEET0_T_S8_S7_RKNS_26random_access_iterator_tagEPT1_
	.loc 7 192 0
	ldr	x30, [sp], 64
	.cfi_restore 30
	ret
	.cfi_endproc
.LFE625:
	.size	_ZN4_STL11__copy_ptrsIPKN7IwTween6CTween9ValueTypeEPS3_EET0_T_S8_S7_RKNS_12__false_typeE, .-_ZN4_STL11__copy_ptrsIPKN7IwTween6CTween9ValueTypeEPS3_EET0_T_S8_S7_RKNS_12__false_typeE
	.section	.text._ZN4_STL6__copyIPKN7IwTween6CTween9ValueTypeEPS3_lEET0_T_S8_S7_RKNS_26random_access_iterator_tagEPT1_,"axG",%progbits,_ZN4_STL6__copyIPKN7IwTween6CTween9ValueTypeEPS3_lEET0_T_S8_S7_RKNS_26random_access_iterator_tagEPT1_,comdat
	.align	2
	.weak	_ZN4_STL6__copyIPKN7IwTween6CTween9ValueTypeEPS3_lEET0_T_S8_S7_RKNS_26random_access_iterator_tagEPT1_
	.hidden	_ZN4_STL6__copyIPKN7IwTween6CTween9ValueTypeEPS3_lEET0_T_S8_S7_RKNS_26random_access_iterator_tagEPT1_
	.type	_ZN4_STL6__copyIPKN7IwTween6CTween9ValueTypeEPS3_lEET0_T_S8_S7_RKNS_26random_access_iterator_tagEPT1_, %function
_ZN4_STL6__copyIPKN7IwTween6CTween9ValueTypeEPS3_lEET0_T_S8_S7_RKNS_26random_access_iterator_tagEPT1_:
.LFB626:
	.loc 7 136 0
	.cfi_startproc
	sub	sp, sp, #64
.LCFI122:
	.cfi_def_cfa_offset 64
	str	x0, [sp, 40]
	str	x1, [sp, 32]
	str	x2, [sp, 24]
	str	x3, [sp, 16]
	str	x4, [sp, 8]
.LBB95:
.LBB96:
	.loc 7 138 0
	ldr	x1, [sp, 32]
	ldr	x0, [sp, 40]
	sub	x0, x1, x0
	asr	x1, x0, 3
	mov	x0, -6148914691236517206
	add	x0, x0, 1
	mul	x0, x1, x0
	str	x0, [sp, 56]
	b	.L431
.L432:
	.loc 7 139 0 discriminator 3
	ldr	x1, [sp, 24]
	ldr	x0, [sp, 40]
	mov	x2, x1
	mov	x3, x0
	ldp	x0, x1, [x3]
	stp	x0, x1, [x2]
	ldr	x0, [x3, 16]
	str	x0, [x2, 16]
	.loc 7 140 0 discriminator 3
	ldr	x0, [sp, 40]
	add	x0, x0, 24
	str	x0, [sp, 40]
	.loc 7 141 0 discriminator 3
	ldr	x0, [sp, 24]
	add	x0, x0, 24
	str	x0, [sp, 24]
	.loc 7 138 0 discriminator 3
	ldr	x0, [sp, 56]
	sub	x0, x0, #1
	str	x0, [sp, 56]
.L431:
	.loc 7 138 0 is_stmt 0 discriminator 1
	ldr	x0, [sp, 56]
	cmp	x0, xzr
	bgt	.L432
.LBE96:
	.loc 7 143 0 is_stmt 1
	ldr	x0, [sp, 24]
.LBE95:
	.loc 7 144 0
	add	sp, sp, 64
.LCFI123:
	.cfi_def_cfa_offset 0
	ret
	.cfi_endproc
.LFE626:
	.size	_ZN4_STL6__copyIPKN7IwTween6CTween9ValueTypeEPS3_lEET0_T_S8_S7_RKNS_26random_access_iterator_tagEPT1_, .-_ZN4_STL6__copyIPKN7IwTween6CTween9ValueTypeEPS3_lEET0_T_S8_S7_RKNS_26random_access_iterator_tagEPT1_
	.local	_ZZN7IwTween13CTweenManager5TweenEfzE21_s_IwAssertIgnoreThis
	.comm	_ZZN7IwTween13CTweenManager5TweenEfzE21_s_IwAssertIgnoreThis,1,1
	.local	_ZZN7IwTween13CTweenManager5TweenEfzE21_s_IwAssertIgnoreThis_0
	.comm	_ZZN7IwTween13CTweenManager5TweenEfzE21_s_IwAssertIgnoreThis_0,1,1
	.text
.Letext0:
	.file 11 "e:/7.10/s3e/h/std/c++/typeinfo.h"
	.file 12 "e:/7.10/s3e/h/std/c++/cstddef"
	.file 13 "e:/7.10/s3e/h/std/c++/using/cstring"
	.file 14 "e:/7.10/s3e/h/std/c++/cstdlib"
	.file 15 "e:/7.10/s3e/h/std/c++/stl/type_traits.h"
	.file 16 "e:/7.10/s3e/h/std/c++/stl/_iterator_base.h"
	.file 17 "e:/7.10/s3e/h/std/c++/cstdio"
	.file 18 "e:/7.10/s3e/h/std/c++/exception"
	.file 19 "e:/7.10/s3e/h/std/c++/typeinfo"
	.file 20 "e:/7.10/s3e/h/std/c++/stl/_config.h"
	.file 21 "e:/7.10/s3e/h/ext/../std/stddef.h"
	.file 22 "e:/7.10/s3e/h/s3eTypes.h"
	.file 23 "e:/7.10/s3e/h/ext/../std/string.h"
	.file 24 "e:/7.10/s3e/h/ext/../std/stdlib.h"
	.file 25 "e:/7.10/s3e/h/ext/../std/stdio.h"
	.file 26 "e:/7.10/s3e/h/std/stdarg.h"
	.file 27 "<built-in>"
	.file 28 "e:/7.10/s3e/h/s3eDebug.h"