	.arch armv8-a+fp+simd
	.file	"PVRTexTool_interface.cpp"
	.text
.Ltext0:
	.cfi_sections	.debug_frame
	.local	_ZL5g_Ext
	.comm	_ZL5g_Ext,16,8
	.local	_ZL8g_GotExt
	.comm	_ZL8g_GotExt,1,1
	.local	_ZL10g_TriedExt
	.comm	_ZL10g_TriedExt,1,1
	.local	_ZL15g_TriedNoMsgExt
	.comm	_ZL15g_TriedNoMsgExt,1,1
	.section	.rodata
	.align	3
.LC0:
	.string	"error loading extension: PVRTexTool"
	.section	.text._ZL8_extLoadv,"ax",%progbits
	.align	2
	.type	_ZL8_extLoadv, %function
_ZL8_extLoadv:
.LFB21:
	.file 1 "e:/7.10/extensions/pvrtextool/interface/PVRTexTool_interface.cpp"
	.loc 1 32 0
	.cfi_startproc
	str	x30, [sp, -32]!
.LCFI0:
	.cfi_def_cfa_offset 32
	.cfi_offset 30, -32
.LBB2:
.LBB3:
	.loc 1 33 0
	adrp	x0, _ZL8g_GotExt
	add	x0, x0, :lo12:_ZL8g_GotExt
	ldrb	w0, [x0]
	eor	w0, w0, 1
	uxtb	w0, w0
	cmp	w0, wzr
	beq	.L2
	.loc 1 33 0 is_stmt 0 discriminator 1
	adrp	x0, _ZL10g_TriedExt
	add	x0, x0, :lo12:_ZL10g_TriedExt
	ldrb	w0, [x0]
	eor	w0, w0, 1
	uxtb	w0, w0
	cmp	w0, wzr
	beq	.L2
.LBB4:
	.loc 1 35 0 is_stmt 1
	mov	w1, 16
	adrp	x0, _ZL5g_Ext
	add	x0, x0, :lo12:_ZL5g_Ext
	mov	w2, w1
	mov	x1, x0
	mov	w0, 52908
	movk	w0, 0xb6b3, lsl 16
	bl	s3eExtGetHash
	str	w0, [sp, 28]
	.loc 1 36 0
	ldr	w0, [sp, 28]
	cmp	w0, wzr
	bne	.L3
	.loc 1 37 0
	adrp	x0, _ZL8g_GotExt
	add	x0, x0, :lo12:_ZL8g_GotExt
	mov	w1, 1
	strb	w1, [x0]
	b	.L4
.L3:
	.loc 1 39 0
	adrp	x0, .LC0
	add	x0, x0, :lo12:.LC0
	mov	x1, x0
	mov	w0, 2
	bl	s3eDebugAssertShow
.L4:
	.loc 1 41 0
	adrp	x0, _ZL10g_TriedExt
	add	x0, x0, :lo12:_ZL10g_TriedExt
	mov	w1, 1
	strb	w1, [x0]
	.loc 1 42 0
	adrp	x0, _ZL15g_TriedNoMsgExt
	add	x0, x0, :lo12:_ZL15g_TriedNoMsgExt
	mov	w1, 1
	strb	w1, [x0]
.L2:
.LBE4:
.LBE3:
	.loc 1 45 0
	adrp	x0, _ZL8g_GotExt
	add	x0, x0, :lo12:_ZL8g_GotExt
	ldrb	w0, [x0]
.LBE2:
	.loc 1 46 0
	ldr	x30, [sp], 32
	.cfi_restore 30
	ret
	.cfi_endproc
.LFE21:
	.size	_ZL8_extLoadv, .-_ZL8_extLoadv
	.section	.text._ZL13_extLoadNoMsgv,"ax",%progbits
	.align	2
	.type	_ZL13_extLoadNoMsgv, %function
_ZL13_extLoadNoMsgv:
.LFB22:
	.loc 1 49 0
	.cfi_startproc
	str	x30, [sp, -32]!
.LCFI1:
	.cfi_def_cfa_offset 32
	.cfi_offset 30, -32
.LBB5:
.LBB6:
	.loc 1 50 0
	adrp	x0, _ZL8g_GotExt
	add	x0, x0, :lo12:_ZL8g_GotExt
	ldrb	w0, [x0]
	eor	w0, w0, 1
	uxtb	w0, w0
	cmp	w0, wzr
	beq	.L7
	.loc 1 50 0 is_stmt 0 discriminator 1
	adrp	x0, _ZL15g_TriedNoMsgExt
	add	x0, x0, :lo12:_ZL15g_TriedNoMsgExt
	ldrb	w0, [x0]
	eor	w0, w0, 1
	uxtb	w0, w0
	cmp	w0, wzr
	beq	.L7
.LBB7:
	.loc 1 52 0 is_stmt 1
	mov	w1, 16
	adrp	x0, _ZL5g_Ext
	add	x0, x0, :lo12:_ZL5g_Ext
	mov	w2, w1
	mov	x1, x0
	mov	w0, 52908
	movk	w0, 0xb6b3, lsl 16
	bl	s3eExtGetHash
	str	w0, [sp, 28]
	.loc 1 53 0
	ldr	w0, [sp, 28]
	cmp	w0, wzr
	bne	.L8
	.loc 1 54 0
	adrp	x0, _ZL8g_GotExt
	add	x0, x0, :lo12:_ZL8g_GotExt
	mov	w1, 1
	strb	w1, [x0]
.L8:
	.loc 1 55 0
	adrp	x0, _ZL15g_TriedNoMsgExt
	add	x0, x0, :lo12:_ZL15g_TriedNoMsgExt
	mov	w1, 1
	strb	w1, [x0]
	.loc 1 56 0
	adrp	x0, _ZL10g_TriedExt
	add	x0, x0, :lo12:_ZL10g_TriedExt
	ldrb	w0, [x0]
	cmp	w0, wzr
	beq	.L9
	.loc 1 57 0
	adrp	x0, _ZL10g_TriedExt
	add	x0, x0, :lo12:_ZL10g_TriedExt
	mov	w1, 1
	strb	w1, [x0]
.L9:
.L7:
.LBE7:
.LBE6:
	.loc 1 60 0
	adrp	x0, _ZL8g_GotExt
	add	x0, x0, :lo12:_ZL8g_GotExt
	ldrb	w0, [x0]
.LBE5:
	.loc 1 61 0
	ldr	x30, [sp], 32
	.cfi_restore 30
	ret
	.cfi_endproc
.LFE22:
	.size	_ZL13_extLoadNoMsgv, .-_ZL13_extLoadNoMsgv
	.section	.text.PVRTexToolAvailable,"ax",%progbits
	.align	2
	.global	PVRTexToolAvailable
	.hidden	PVRTexToolAvailable
	.type	PVRTexToolAvailable, %function
PVRTexToolAvailable:
.LFB23:
	.loc 1 64 0
	.cfi_startproc
	str	x30, [sp, -16]!
.LCFI2:
	.cfi_def_cfa_offset 16
	.cfi_offset 30, -16
	.loc 1 65 0
	bl	_ZL13_extLoadNoMsgv
	.loc 1 66 0
	adrp	x0, _ZL8g_GotExt
	add	x0, x0, :lo12:_ZL8g_GotExt
	ldrb	w0, [x0]
	cmp	w0, wzr
	beq	.L12
	.loc 1 66 0 is_stmt 0 discriminator 1
	mov	w0, 1
	b	.L13
.L12:
	.loc 1 66 0 discriminator 2
	mov	w0, 0
.L13:
	.loc 1 67 0 is_stmt 1 discriminator 4
	ldr	x30, [sp], 16
	.cfi_restore 30
	ret
	.cfi_endproc
.LFE23:
	.size	PVRTexToolAvailable, .-PVRTexToolAvailable
	.section	.rodata
	.align	3
.LC1:
	.string	"PVRTEXTOOL_VERBOSE"
	.align	3
.LC2:
	.string	"calling PVRTexTool[0] func: PVRTexToolConvert"
	.section	.text.PVRTexToolConvert,"ax",%progbits
	.align	2
	.global	PVRTexToolConvert
	.hidden	PVRTexToolConvert
	.type	PVRTexToolConvert, %function
PVRTexToolConvert:
.LFB24:
	.loc 1 70 0
	.cfi_startproc
	str	x30, [sp, -48]!
.LCFI3:
	.cfi_def_cfa_offset 48
	.cfi_offset 30, -48
	str	x0, [sp, 24]
.LBB8:
	.loc 1 71 0
	adrp	x0, .LC1
	add	x0, x0, :lo12:.LC1
	mov	w1, 1
	bl	IwDebugTraceIsChannelOn
	uxtb	w0, w0
	cmp	w0, wzr
	cset	w0, ne
	uxtb	w0, w0
	cmp	w0, wzr
	beq	.L16
	.loc 1 71 0 is_stmt 0 discriminator 1
	adrp	x0, .LC1
	add	x0, x0, :lo12:.LC1
	bl	IwDebugTraceSetTraceChannel
	adrp	x0, .LC2
	add	x0, x0, :lo12:.LC2
	bl	IwDebugTraceLinePrintf
.L16:
	.loc 1 73 0 is_stmt 1
	bl	_ZL8_extLoadv
	uxtb	w0, w0
	eor	w0, w0, 1
	uxtb	w0, w0
	cmp	w0, wzr
	beq	.L17
	.loc 1 74 0
	mov	x0, 0
	b	.L18
.L17:
	.loc 1 80 0
	adrp	x0, _ZL5g_Ext
	add	x0, x0, :lo12:_ZL5g_Ext
	ldr	x1, [x0]
	ldr	x0, [sp, 24]
	blr	x1
	str	x0, [sp, 40]
	.loc 1 86 0
	ldr	x0, [sp, 40]
.L18:
.LBE8:
	.loc 1 87 0
	ldr	x30, [sp], 48
	.cfi_restore 30
	ret
	.cfi_endproc
.LFE24:
	.size	PVRTexToolConvert, .-PVRTexToolConvert
	.section	.rodata
	.align	3
.LC3:
	.string	"calling PVRTexTool[1] func: PVRTexToolFree"
	.section	.text.PVRTexToolFree,"ax",%progbits
	.align	2
	.global	PVRTexToolFree
	.hidden	PVRTexToolFree
	.type	PVRTexToolFree, %function
PVRTexToolFree:
.LFB25:
	.loc 1 90 0
	.cfi_startproc
	str	x30, [sp, -32]!
.LCFI4:
	.cfi_def_cfa_offset 32
	.cfi_offset 30, -32
	str	x0, [sp, 24]
	.loc 1 91 0
	adrp	x0, .LC1
	add	x0, x0, :lo12:.LC1
	mov	w1, 1
	bl	IwDebugTraceIsChannelOn
	uxtb	w0, w0
	cmp	w0, wzr
	cset	w0, ne
	uxtb	w0, w0
	cmp	w0, wzr
	beq	.L20
	.loc 1 91 0 is_stmt 0 discriminator 1
	adrp	x0, .LC1
	add	x0, x0, :lo12:.LC1
	bl	IwDebugTraceSetTraceChannel
	adrp	x0, .LC3
	add	x0, x0, :lo12:.LC3
	bl	IwDebugTraceLinePrintf
.L20:
	.loc 1 93 0 is_stmt 1
	bl	_ZL8_extLoadv
	uxtb	w0, w0
	eor	w0, w0, 1
	uxtb	w0, w0
	cmp	w0, wzr
	beq	.L21
	.loc 1 94 0
	b	.L19
.L21:
	.loc 1 100 0
	adrp	x0, _ZL5g_Ext
	add	x0, x0, :lo12:_ZL5g_Ext
	ldr	x1, [x0, 8]
	ldr	x0, [sp, 24]
	blr	x1
	.loc 1 106 0
	nop
.L19:
	.loc 1 107 0
	ldr	x30, [sp], 32
	.cfi_restore 30
	ret
	.cfi_endproc
.LFE25:
	.size	PVRTexToolFree, .-PVRTexToolFree
	.text
.Letext0:
	.file 2 "e:/7.10/s3e/h/s3eTypes.h"
	.file 3 "e:/7.10/s3e/h/s3eDebug.h"
	.file 4 "e:/7.10/s3e/h/std/c++/typeinfo.h"
	.file 5 "e:/7.10/s3e/h/std/c++/exception"
	.file 6 "e:/7.10/s3e/h/std/c++/typeinfo"
	.file 7 "e:/7.10/s3e/h/std/c++/stl/_config.h"
	.file 8 "e:/7.10/extensions/pvrtextool/h/PVRTexTool.h"
	.file 9 "e:/7.10/extensions/pvrtextool/interface/PVRTexTool_interface.h"
	.file 10 "<built-in>"