	.arch armv8-a+fp+simd
	.file	"s3eAmazonAds_interface.cpp"
	.text
.Ltext0:
	.cfi_sections	.debug_frame
	.local	_ZL5g_Ext
	.comm	_ZL5g_Ext,128,8
	.local	_ZL8g_GotExt
	.comm	_ZL8g_GotExt,1,1
	.local	_ZL10g_TriedExt
	.comm	_ZL10g_TriedExt,1,1
	.local	_ZL15g_TriedNoMsgExt
	.comm	_ZL15g_TriedNoMsgExt,1,1
	.section	.rodata
	.align	3
.LC0:
	.string	"error loading extension: s3eAmazonAds"
	.section	.text._ZL8_extLoadv,"ax",%progbits
	.align	2
	.type	_ZL8_extLoadv, %function
_ZL8_extLoadv:
.LFB21:
	.file 1 "e:/7.10/extensions/s3eamazonads/interface/s3eAmazonAds_interface.cpp"
	.loc 1 32 0
	.cfi_startproc
	str	x30, [sp, -32]!
.LCFI0:
	.cfi_def_cfa_offset 32
	.cfi_offset 30, -32
.LBB2:
.LBB3:
	.loc 1 33 0
	adrp	x0, _ZL8g_GotExt
	add	x0, x0, :lo12:_ZL8g_GotExt
	ldrb	w0, [x0]
	eor	w0, w0, 1
	uxtb	w0, w0
	cmp	w0, wzr
	beq	.L2
	.loc 1 33 0 is_stmt 0 discriminator 1
	adrp	x0, _ZL10g_TriedExt
	add	x0, x0, :lo12:_ZL10g_TriedExt
	ldrb	w0, [x0]
	eor	w0, w0, 1
	uxtb	w0, w0
	cmp	w0, wzr
	beq	.L2
.LBB4:
	.loc 1 35 0 is_stmt 1
	mov	w1, 128
	adrp	x0, _ZL5g_Ext
	add	x0, x0, :lo12:_ZL5g_Ext
	mov	w2, w1
	mov	x1, x0
	mov	w0, 34734
	movk	w0, 0x8a44, lsl 16
	bl	s3eExtGetHash
	str	w0, [sp, 28]
	.loc 1 36 0
	ldr	w0, [sp, 28]
	cmp	w0, wzr
	bne	.L3
	.loc 1 37 0
	adrp	x0, _ZL8g_GotExt
	add	x0, x0, :lo12:_ZL8g_GotExt
	mov	w1, 1
	strb	w1, [x0]
	b	.L4
.L3:
	.loc 1 39 0
	adrp	x0, .LC0
	add	x0, x0, :lo12:.LC0
	mov	x1, x0
	mov	w0, 2
	bl	s3eDebugAssertShow
.L4:
	.loc 1 41 0
	adrp	x0, _ZL10g_TriedExt
	add	x0, x0, :lo12:_ZL10g_TriedExt
	mov	w1, 1
	strb	w1, [x0]
	.loc 1 42 0
	adrp	x0, _ZL15g_TriedNoMsgExt
	add	x0, x0, :lo12:_ZL15g_TriedNoMsgExt
	mov	w1, 1
	strb	w1, [x0]
.L2:
.LBE4:
.LBE3:
	.loc 1 45 0
	adrp	x0, _ZL8g_GotExt
	add	x0, x0, :lo12:_ZL8g_GotExt
	ldrb	w0, [x0]
.LBE2:
	.loc 1 46 0
	ldr	x30, [sp], 32
	.cfi_restore 30
	ret
	.cfi_endproc
.LFE21:
	.size	_ZL8_extLoadv, .-_ZL8_extLoadv
	.section	.text._ZL13_extLoadNoMsgv,"ax",%progbits
	.align	2
	.type	_ZL13_extLoadNoMsgv, %function
_ZL13_extLoadNoMsgv:
.LFB22:
	.loc 1 49 0
	.cfi_startproc
	str	x30, [sp, -32]!
.LCFI1:
	.cfi_def_cfa_offset 32
	.cfi_offset 30, -32
.LBB5:
.LBB6:
	.loc 1 50 0
	adrp	x0, _ZL8g_GotExt
	add	x0, x0, :lo12:_ZL8g_GotExt
	ldrb	w0, [x0]
	eor	w0, w0, 1
	uxtb	w0, w0
	cmp	w0, wzr
	beq	.L7
	.loc 1 50 0 is_stmt 0 discriminator 1
	adrp	x0, _ZL15g_TriedNoMsgExt
	add	x0, x0, :lo12:_ZL15g_TriedNoMsgExt
	ldrb	w0, [x0]
	eor	w0, w0, 1
	uxtb	w0, w0
	cmp	w0, wzr
	beq	.L7
.LBB7:
	.loc 1 52 0 is_stmt 1
	mov	w1, 128
	adrp	x0, _ZL5g_Ext
	add	x0, x0, :lo12:_ZL5g_Ext
	mov	w2, w1
	mov	x1, x0
	mov	w0, 34734
	movk	w0, 0x8a44, lsl 16
	bl	s3eExtGetHash
	str	w0, [sp, 28]
	.loc 1 53 0
	ldr	w0, [sp, 28]
	cmp	w0, wzr
	bne	.L8
	.loc 1 54 0
	adrp	x0, _ZL8g_GotExt
	add	x0, x0, :lo12:_ZL8g_GotExt
	mov	w1, 1
	strb	w1, [x0]
.L8:
	.loc 1 55 0
	adrp	x0, _ZL15g_TriedNoMsgExt
	add	x0, x0, :lo12:_ZL15g_TriedNoMsgExt
	mov	w1, 1
	strb	w1, [x0]
	.loc 1 56 0
	adrp	x0, _ZL10g_TriedExt
	add	x0, x0, :lo12:_ZL10g_TriedExt
	ldrb	w0, [x0]
	cmp	w0, wzr
	beq	.L9
	.loc 1 57 0
	adrp	x0, _ZL10g_TriedExt
	add	x0, x0, :lo12:_ZL10g_TriedExt
	mov	w1, 1
	strb	w1, [x0]
.L9:
.L7:
.LBE7:
.LBE6:
	.loc 1 60 0
	adrp	x0, _ZL8g_GotExt
	add	x0, x0, :lo12:_ZL8g_GotExt
	ldrb	w0, [x0]
.LBE5:
	.loc 1 61 0
	ldr	x30, [sp], 32
	.cfi_restore 30
	ret
	.cfi_endproc
.LFE22:
	.size	_ZL13_extLoadNoMsgv, .-_ZL13_extLoadNoMsgv
	.section	.text.s3eAmazonAdsAvailable,"ax",%progbits
	.align	2
	.global	s3eAmazonAdsAvailable
	.hidden	s3eAmazonAdsAvailable
	.type	s3eAmazonAdsAvailable, %function
s3eAmazonAdsAvailable:
.LFB23:
	.loc 1 64 0
	.cfi_startproc
	str	x30, [sp, -16]!
.LCFI2:
	.cfi_def_cfa_offset 16
	.cfi_offset 30, -16
	.loc 1 65 0
	bl	_ZL13_extLoadNoMsgv
	.loc 1 66 0
	adrp	x0, _ZL8g_GotExt
	add	x0, x0, :lo12:_ZL8g_GotExt
	ldrb	w0, [x0]
	cmp	w0, wzr
	beq	.L12
	.loc 1 66 0 is_stmt 0 discriminator 1
	mov	w0, 1
	b	.L13
.L12:
	.loc 1 66 0 discriminator 2
	mov	w0, 0
.L13:
	.loc 1 67 0 is_stmt 1 discriminator 4
	ldr	x30, [sp], 16
	.cfi_restore 30
	ret
	.cfi_endproc
.LFE23:
	.size	s3eAmazonAdsAvailable, .-s3eAmazonAdsAvailable
	.section	.rodata
	.align	3
.LC1:
	.string	"AMAZONADS_VERBOSE"
	.align	3
.LC2:
	.string	"calling s3eAmazonAds[0] func: s3eAmazonAdsRegister"
	.section	.text.s3eAmazonAdsRegister,"ax",%progbits
	.align	2
	.global	s3eAmazonAdsRegister
	.hidden	s3eAmazonAdsRegister
	.type	s3eAmazonAdsRegister, %function
s3eAmazonAdsRegister:
.LFB24:
	.loc 1 76 0
	.cfi_startproc
	str	x30, [sp, -64]!
.LCFI3:
	.cfi_def_cfa_offset 64
	.cfi_offset 30, -64
	str	w0, [sp, 44]
	str	x1, [sp, 32]
	str	x2, [sp, 24]
.LBB8:
	.loc 1 77 0
	adrp	x0, .LC1
	add	x0, x0, :lo12:.LC1
	mov	w1, 1
	bl	IwDebugTraceIsChannelOn
	uxtb	w0, w0
	cmp	w0, wzr
	cset	w0, ne
	uxtb	w0, w0
	cmp	w0, wzr
	beq	.L16
	.loc 1 77 0 is_stmt 0 discriminator 1
	adrp	x0, .LC1
	add	x0, x0, :lo12:.LC1
	bl	IwDebugTraceSetTraceChannel
	adrp	x0, .LC2
	add	x0, x0, :lo12:.LC2
	bl	IwDebugTraceLinePrintf
.L16:
	.loc 1 79 0 is_stmt 1
	bl	_ZL8_extLoadv
	uxtb	w0, w0
	eor	w0, w0, 1
	uxtb	w0, w0
	cmp	w0, wzr
	beq	.L17
	.loc 1 80 0
	mov	w0, 1
	b	.L18
.L17:
	.loc 1 86 0
	adrp	x0, _ZL5g_Ext
	add	x0, x0, :lo12:_ZL5g_Ext
	ldr	x3, [x0]
	ldr	x2, [sp, 24]
	ldr	x1, [sp, 32]
	ldr	w0, [sp, 44]
	blr	x3
	str	w0, [sp, 60]
	.loc 1 92 0
	ldr	w0, [sp, 60]
.L18:
.LBE8:
	.loc 1 93 0
	ldr	x30, [sp], 64
	.cfi_restore 30
	ret
	.cfi_endproc
.LFE24:
	.size	s3eAmazonAdsRegister, .-s3eAmazonAdsRegister
	.section	.rodata
	.align	3
.LC3:
	.string	"calling s3eAmazonAds[1] func: s3eAmazonAdsUnRegister"
	.section	.text.s3eAmazonAdsUnRegister,"ax",%progbits
	.align	2
	.global	s3eAmazonAdsUnRegister
	.hidden	s3eAmazonAdsUnRegister
	.type	s3eAmazonAdsUnRegister, %function
s3eAmazonAdsUnRegister:
.LFB25:
	.loc 1 102 0
	.cfi_startproc
	str	x30, [sp, -48]!
.LCFI4:
	.cfi_def_cfa_offset 48
	.cfi_offset 30, -48
	str	w0, [sp, 28]
	str	x1, [sp, 16]
.LBB9:
	.loc 1 103 0
	adrp	x0, .LC1
	add	x0, x0, :lo12:.LC1
	mov	w1, 1
	bl	IwDebugTraceIsChannelOn
	uxtb	w0, w0
	cmp	w0, wzr
	cset	w0, ne
	uxtb	w0, w0
	cmp	w0, wzr
	beq	.L20
	.loc 1 103 0 is_stmt 0 discriminator 1
	adrp	x0, .LC1
	add	x0, x0, :lo12:.LC1
	bl	IwDebugTraceSetTraceChannel
	adrp	x0, .LC3
	add	x0, x0, :lo12:.LC3
	bl	IwDebugTraceLinePrintf
.L20:
	.loc 1 105 0 is_stmt 1
	bl	_ZL8_extLoadv
	uxtb	w0, w0
	eor	w0, w0, 1
	uxtb	w0, w0
	cmp	w0, wzr
	beq	.L21
	.loc 1 106 0
	mov	w0, 1
	b	.L22
.L21:
	.loc 1 112 0
	adrp	x0, _ZL5g_Ext
	add	x0, x0, :lo12:_ZL5g_Ext
	ldr	x2, [x0, 8]
	ldr	x1, [sp, 16]
	ldr	w0, [sp, 28]
	blr	x2
	str	w0, [sp, 44]
	.loc 1 118 0
	ldr	w0, [sp, 44]
.L22:
.LBE9:
	.loc 1 119 0
	ldr	x30, [sp], 48
	.cfi_restore 30
	ret
	.cfi_endproc
.LFE25:
	.size	s3eAmazonAdsUnRegister, .-s3eAmazonAdsUnRegister
	.section	.rodata
	.align	3
.LC4:
	.string	"calling s3eAmazonAds[2] func: s3eAmazonAdsGetErrorString"
	.section	.text.s3eAmazonAdsGetErrorString,"ax",%progbits
	.align	2
	.global	s3eAmazonAdsGetErrorString
	.hidden	s3eAmazonAdsGetErrorString
	.type	s3eAmazonAdsGetErrorString, %function
s3eAmazonAdsGetErrorString:
.LFB26:
	.loc 1 128 0
	.cfi_startproc
	str	x30, [sp, -32]!
.LCFI5:
	.cfi_def_cfa_offset 32
	.cfi_offset 30, -32
.LBB10:
	.loc 1 129 0
	adrp	x0, .LC1
	add	x0, x0, :lo12:.LC1
	mov	w1, 1
	bl	IwDebugTraceIsChannelOn
	uxtb	w0, w0
	cmp	w0, wzr
	cset	w0, ne
	uxtb	w0, w0
	cmp	w0, wzr
	beq	.L24
	.loc 1 129 0 is_stmt 0 discriminator 1
	adrp	x0, .LC1
	add	x0, x0, :lo12:.LC1
	bl	IwDebugTraceSetTraceChannel
	adrp	x0, .LC4
	add	x0, x0, :lo12:.LC4
	bl	IwDebugTraceLinePrintf
.L24:
	.loc 1 131 0 is_stmt 1
	bl	_ZL8_extLoadv
	uxtb	w0, w0
	eor	w0, w0, 1
	uxtb	w0, w0
	cmp	w0, wzr
	beq	.L25
	.loc 1 132 0
	mov	x0, 0
	b	.L26
.L25:
	.loc 1 138 0
	adrp	x0, _ZL5g_Ext
	add	x0, x0, :lo12:_ZL5g_Ext
	ldr	x0, [x0, 16]
	blr	x0
	str	x0, [sp, 24]
	.loc 1 144 0
	ldr	x0, [sp, 24]
.L26:
.LBE10:
	.loc 1 145 0
	ldr	x30, [sp], 32
	.cfi_restore 30
	ret
	.cfi_endproc
.LFE26:
	.size	s3eAmazonAdsGetErrorString, .-s3eAmazonAdsGetErrorString
	.section	.rodata
	.align	3
.LC5:
	.string	"calling s3eAmazonAds[3] func: s3eAmazonAdsGetError"
	.section	.text.s3eAmazonAdsGetError,"ax",%progbits
	.align	2
	.global	s3eAmazonAdsGetError
	.hidden	s3eAmazonAdsGetError
	.type	s3eAmazonAdsGetError, %function
s3eAmazonAdsGetError:
.LFB27:
	.loc 1 154 0
	.cfi_startproc
	str	x30, [sp, -32]!
.LCFI6:
	.cfi_def_cfa_offset 32
	.cfi_offset 30, -32
.LBB11:
	.loc 1 155 0
	adrp	x0, .LC1
	add	x0, x0, :lo12:.LC1
	mov	w1, 1
	bl	IwDebugTraceIsChannelOn
	uxtb	w0, w0
	cmp	w0, wzr
	cset	w0, ne
	uxtb	w0, w0
	cmp	w0, wzr
	beq	.L28
	.loc 1 155 0 is_stmt 0 discriminator 1
	adrp	x0, .LC1
	add	x0, x0, :lo12:.LC1
	bl	IwDebugTraceSetTraceChannel
	adrp	x0, .LC5
	add	x0, x0, :lo12:.LC5
	bl	IwDebugTraceLinePrintf
.L28:
	.loc 1 157 0 is_stmt 1
	bl	_ZL8_extLoadv
	uxtb	w0, w0
	eor	w0, w0, 1
	uxtb	w0, w0
	cmp	w0, wzr
	beq	.L29
	.loc 1 158 0
	mov	w0, 0
	b	.L30
.L29:
	.loc 1 164 0
	adrp	x0, _ZL5g_Ext
	add	x0, x0, :lo12:_ZL5g_Ext
	ldr	x0, [x0, 24]
	blr	x0
	str	w0, [sp, 28]
	.loc 1 170 0
	ldr	w0, [sp, 28]
.L30:
.LBE11:
	.loc 1 171 0
	ldr	x30, [sp], 32
	.cfi_restore 30
	ret
	.cfi_endproc
.LFE27:
	.size	s3eAmazonAdsGetError, .-s3eAmazonAdsGetError
	.section	.rodata
	.align	3
.LC6:
	.string	"calling s3eAmazonAds[4] func: s3eAmazonAdsInit"
	.section	.text.s3eAmazonAdsInit,"ax",%progbits
	.align	2
	.global	s3eAmazonAdsInit
	.hidden	s3eAmazonAdsInit
	.type	s3eAmazonAdsInit, %function
s3eAmazonAdsInit:
.LFB28:
	.loc 1 180 0
	.cfi_startproc
	str	x30, [sp, -48]!
.LCFI7:
	.cfi_def_cfa_offset 48
	.cfi_offset 30, -48
	str	x0, [sp, 24]
	strb	w1, [sp, 23]
	strb	w2, [sp, 22]
.LBB12:
	.loc 1 181 0
	adrp	x0, .LC1
	add	x0, x0, :lo12:.LC1
	mov	w1, 1
	bl	IwDebugTraceIsChannelOn
	uxtb	w0, w0
	cmp	w0, wzr
	cset	w0, ne
	uxtb	w0, w0
	cmp	w0, wzr
	beq	.L32
	.loc 1 181 0 is_stmt 0 discriminator 1
	adrp	x0, .LC1
	add	x0, x0, :lo12:.LC1
	bl	IwDebugTraceSetTraceChannel
	adrp	x0, .LC6
	add	x0, x0, :lo12:.LC6
	bl	IwDebugTraceLinePrintf
.L32:
	.loc 1 183 0 is_stmt 1
	bl	_ZL8_extLoadv
	uxtb	w0, w0
	eor	w0, w0, 1
	uxtb	w0, w0
	cmp	w0, wzr
	beq	.L33
	.loc 1 184 0
	mov	w0, 1
	b	.L34
.L33:
	.loc 1 190 0
	adrp	x0, _ZL5g_Ext
	add	x0, x0, :lo12:_ZL5g_Ext
	ldr	x3, [x0, 32]
	ldrb	w2, [sp, 22]
	ldrb	w1, [sp, 23]
	ldr	x0, [sp, 24]
	blr	x3
	str	w0, [sp, 44]
	.loc 1 196 0
	ldr	w0, [sp, 44]
.L34:
.LBE12:
	.loc 1 197 0
	ldr	x30, [sp], 48
	.cfi_restore 30
	ret
	.cfi_endproc
.LFE28:
	.size	s3eAmazonAdsInit, .-s3eAmazonAdsInit
	.section	.rodata
	.align	3
.LC7:
	.string	"calling s3eAmazonAds[5] func: s3eAmazonAdsTerminate"
	.section	.text.s3eAmazonAdsTerminate,"ax",%progbits
	.align	2
	.global	s3eAmazonAdsTerminate
	.hidden	s3eAmazonAdsTerminate
	.type	s3eAmazonAdsTerminate, %function
s3eAmazonAdsTerminate:
.LFB29:
	.loc 1 206 0
	.cfi_startproc
	str	x30, [sp, -32]!
.LCFI8:
	.cfi_def_cfa_offset 32
	.cfi_offset 30, -32
.LBB13:
	.loc 1 207 0
	adrp	x0, .LC1
	add	x0, x0, :lo12:.LC1
	mov	w1, 1
	bl	IwDebugTraceIsChannelOn
	uxtb	w0, w0
	cmp	w0, wzr
	cset	w0, ne
	uxtb	w0, w0
	cmp	w0, wzr
	beq	.L36
	.loc 1 207 0 is_stmt 0 discriminator 1
	adrp	x0, .LC1
	add	x0, x0, :lo12:.LC1
	bl	IwDebugTraceSetTraceChannel
	adrp	x0, .LC7
	add	x0, x0, :lo12:.LC7
	bl	IwDebugTraceLinePrintf
.L36:
	.loc 1 209 0 is_stmt 1
	bl	_ZL8_extLoadv
	uxtb	w0, w0
	eor	w0, w0, 1
	uxtb	w0, w0
	cmp	w0, wzr
	beq	.L37
	.loc 1 210 0
	mov	w0, 0
	b	.L38
.L37:
	.loc 1 216 0
	adrp	x0, _ZL5g_Ext
	add	x0, x0, :lo12:_ZL5g_Ext
	ldr	x0, [x0, 40]
	blr	x0
	str	w0, [sp, 28]
	.loc 1 222 0
	ldr	w0, [sp, 28]
.L38:
.LBE13:
	.loc 1 223 0
	ldr	x30, [sp], 32
	.cfi_restore 30
	ret
	.cfi_endproc
.LFE29:
	.size	s3eAmazonAdsTerminate, .-s3eAmazonAdsTerminate
	.section	.rodata
	.align	3
.LC8:
	.string	"calling s3eAmazonAds[6] func: s3eAmazonAdsPrepareAd"
	.section	.text.s3eAmazonAdsPrepareAd,"ax",%progbits
	.align	2
	.global	s3eAmazonAdsPrepareAd
	.hidden	s3eAmazonAdsPrepareAd
	.type	s3eAmazonAdsPrepareAd, %function
s3eAmazonAdsPrepareAd:
.LFB30:
	.loc 1 232 0
	.cfi_startproc
	str	x30, [sp, -48]!
.LCFI9:
	.cfi_def_cfa_offset 48
	.cfi_offset 30, -48
	str	x0, [sp, 24]
.LBB14:
	.loc 1 233 0
	adrp	x0, .LC1
	add	x0, x0, :lo12:.LC1
	mov	w1, 1
	bl	IwDebugTraceIsChannelOn
	uxtb	w0, w0
	cmp	w0, wzr
	cset	w0, ne
	uxtb	w0, w0
	cmp	w0, wzr
	beq	.L40
	.loc 1 233 0 is_stmt 0 discriminator 1
	adrp	x0, .LC1
	add	x0, x0, :lo12:.LC1
	bl	IwDebugTraceSetTraceChannel
	adrp	x0, .LC8
	add	x0, x0, :lo12:.LC8
	bl	IwDebugTraceLinePrintf
.L40:
	.loc 1 235 0 is_stmt 1
	bl	_ZL8_extLoadv
	uxtb	w0, w0
	eor	w0, w0, 1
	uxtb	w0, w0
	cmp	w0, wzr
	beq	.L41
	.loc 1 236 0
	mov	w0, 1
	b	.L42
.L41:
	.loc 1 242 0
	adrp	x0, _ZL5g_Ext
	add	x0, x0, :lo12:_ZL5g_Ext
	ldr	x1, [x0, 48]
	ldr	x0, [sp, 24]
	blr	x1
	str	w0, [sp, 44]
	.loc 1 248 0
	ldr	w0, [sp, 44]
.L42:
.LBE14:
	.loc 1 249 0
	ldr	x30, [sp], 48
	.cfi_restore 30
	ret
	.cfi_endproc
.LFE30:
	.size	s3eAmazonAdsPrepareAd, .-s3eAmazonAdsPrepareAd
	.section	.rodata
	.align	3
.LC9:
	.string	"calling s3eAmazonAds[7] func: s3eAmazonAdsPrepareAdLayout"
	.section	.text.s3eAmazonAdsPrepareAdLayout,"ax",%progbits
	.align	2
	.global	s3eAmazonAdsPrepareAdLayout
	.hidden	s3eAmazonAdsPrepareAdLayout
	.type	s3eAmazonAdsPrepareAdLayout, %function
s3eAmazonAdsPrepareAdLayout:
.LFB31:
	.loc 1 258 0
	.cfi_startproc
	str	x30, [sp, -64]!
.LCFI10:
	.cfi_def_cfa_offset 64
	.cfi_offset 30, -64
	str	x0, [sp, 40]
	str	w1, [sp, 36]
	str	w2, [sp, 32]
	str	w3, [sp, 28]
	str	w4, [sp, 24]
.LBB15:
	.loc 1 259 0
	adrp	x0, .LC1
	add	x0, x0, :lo12:.LC1
	mov	w1, 1
	bl	IwDebugTraceIsChannelOn
	uxtb	w0, w0
	cmp	w0, wzr
	cset	w0, ne
	uxtb	w0, w0
	cmp	w0, wzr
	beq	.L44
	.loc 1 259 0 is_stmt 0 discriminator 1
	adrp	x0, .LC1
	add	x0, x0, :lo12:.LC1
	bl	IwDebugTraceSetTraceChannel
	adrp	x0, .LC9
	add	x0, x0, :lo12:.LC9
	bl	IwDebugTraceLinePrintf
.L44:
	.loc 1 261 0 is_stmt 1
	bl	_ZL8_extLoadv
	uxtb	w0, w0
	eor	w0, w0, 1
	uxtb	w0, w0
	cmp	w0, wzr
	beq	.L45
	.loc 1 262 0
	mov	w0, 1
	b	.L46
.L45:
	.loc 1 268 0
	adrp	x0, _ZL5g_Ext
	add	x0, x0, :lo12:_ZL5g_Ext
	ldr	x5, [x0, 56]
	ldr	w4, [sp, 24]
	ldr	w3, [sp, 28]
	ldr	w2, [sp, 32]
	ldr	w1, [sp, 36]
	ldr	x0, [sp, 40]
	blr	x5
	str	w0, [sp, 60]
	.loc 1 274 0
	ldr	w0, [sp, 60]
.L46:
.LBE15:
	.loc 1 275 0
	ldr	x30, [sp], 64
	.cfi_restore 30
	ret
	.cfi_endproc
.LFE31:
	.size	s3eAmazonAdsPrepareAdLayout, .-s3eAmazonAdsPrepareAdLayout
	.section	.rodata
	.align	3
.LC10:
	.string	"calling s3eAmazonAds[8] func: s3eAmazonAdsSetAdTargetingOptions"
	.section	.text.s3eAmazonAdsSetAdTargetingOptions,"ax",%progbits
	.align	2
	.global	s3eAmazonAdsSetAdTargetingOptions
	.hidden	s3eAmazonAdsSetAdTargetingOptions
	.type	s3eAmazonAdsSetAdTargetingOptions, %function
s3eAmazonAdsSetAdTargetingOptions:
.LFB32:
	.loc 1 284 0
	.cfi_startproc
	str	x30, [sp, -48]!
.LCFI11:
	.cfi_def_cfa_offset 48
	.cfi_offset 30, -48
	str	x0, [sp, 24]
	str	x1, [sp, 16]
.LBB16:
	.loc 1 285 0
	adrp	x0, .LC1
	add	x0, x0, :lo12:.LC1
	mov	w1, 1
	bl	IwDebugTraceIsChannelOn
	uxtb	w0, w0
	cmp	w0, wzr
	cset	w0, ne
	uxtb	w0, w0
	cmp	w0, wzr
	beq	.L48
	.loc 1 285 0 is_stmt 0 discriminator 1
	adrp	x0, .LC1
	add	x0, x0, :lo12:.LC1
	bl	IwDebugTraceSetTraceChannel
	adrp	x0, .LC10
	add	x0, x0, :lo12:.LC10
	bl	IwDebugTraceLinePrintf
.L48:
	.loc 1 287 0 is_stmt 1
	bl	_ZL8_extLoadv
	uxtb	w0, w0
	eor	w0, w0, 1
	uxtb	w0, w0
	cmp	w0, wzr
	beq	.L49
	.loc 1 288 0
	mov	w0, 1
	b	.L50
.L49:
	.loc 1 294 0
	adrp	x0, _ZL5g_Ext
	add	x0, x0, :lo12:_ZL5g_Ext
	ldr	x2, [x0, 64]
	ldr	x1, [sp, 16]
	ldr	x0, [sp, 24]
	blr	x2
	str	w0, [sp, 44]
	.loc 1 300 0
	ldr	w0, [sp, 44]
.L50:
.LBE16:
	.loc 1 301 0
	ldr	x30, [sp], 48
	.cfi_restore 30
	ret
	.cfi_endproc
.LFE32:
	.size	s3eAmazonAdsSetAdTargetingOptions, .-s3eAmazonAdsSetAdTargetingOptions
	.section	.rodata
	.align	3
.LC11:
	.string	"calling s3eAmazonAds[9] func: s3eAmazonAdsGetAdTargetingOptions"
	.section	.text.s3eAmazonAdsGetAdTargetingOptions,"ax",%progbits
	.align	2
	.global	s3eAmazonAdsGetAdTargetingOptions
	.hidden	s3eAmazonAdsGetAdTargetingOptions
	.type	s3eAmazonAdsGetAdTargetingOptions, %function
s3eAmazonAdsGetAdTargetingOptions:
.LFB33:
	.loc 1 310 0
	.cfi_startproc
	str	x30, [sp, -48]!
.LCFI12:
	.cfi_def_cfa_offset 48
	.cfi_offset 30, -48
	str	x0, [sp, 24]
.LBB17:
	.loc 1 311 0
	adrp	x0, .LC1
	add	x0, x0, :lo12:.LC1
	mov	w1, 1
	bl	IwDebugTraceIsChannelOn
	uxtb	w0, w0
	cmp	w0, wzr
	cset	w0, ne
	uxtb	w0, w0
	cmp	w0, wzr
	beq	.L52
	.loc 1 311 0 is_stmt 0 discriminator 1
	adrp	x0, .LC1
	add	x0, x0, :lo12:.LC1
	bl	IwDebugTraceSetTraceChannel
	adrp	x0, .LC11
	add	x0, x0, :lo12:.LC11
	bl	IwDebugTraceLinePrintf
.L52:
	.loc 1 313 0 is_stmt 1
	bl	_ZL8_extLoadv
	uxtb	w0, w0
	eor	w0, w0, 1
	uxtb	w0, w0
	cmp	w0, wzr
	beq	.L53
	.loc 1 314 0
	mov	x0, 0
	b	.L54
.L53:
	.loc 1 320 0
	adrp	x0, _ZL5g_Ext
	add	x0, x0, :lo12:_ZL5g_Ext
	ldr	x1, [x0, 72]
	ldr	x0, [sp, 24]
	blr	x1
	str	x0, [sp, 40]
	.loc 1 326 0
	ldr	x0, [sp, 40]
.L54:
.LBE17:
	.loc 1 327 0
	ldr	x30, [sp], 48
	.cfi_restore 30
	ret
	.cfi_endproc
.LFE33:
	.size	s3eAmazonAdsGetAdTargetingOptions, .-s3eAmazonAdsGetAdTargetingOptions
	.section	.rodata
	.align	3
.LC12:
	.string	"calling s3eAmazonAds[10] func: s3eAmazonAdsLoadAd"
	.section	.text.s3eAmazonAdsLoadAd,"ax",%progbits
	.align	2
	.global	s3eAmazonAdsLoadAd
	.hidden	s3eAmazonAdsLoadAd
	.type	s3eAmazonAdsLoadAd, %function
s3eAmazonAdsLoadAd:
.LFB34:
	.loc 1 336 0
	.cfi_startproc
	str	x30, [sp, -48]!
.LCFI13:
	.cfi_def_cfa_offset 48
	.cfi_offset 30, -48
	str	x0, [sp, 24]
	strb	w1, [sp, 23]
	str	w2, [sp, 16]
.LBB18:
	.loc 1 337 0
	adrp	x0, .LC1
	add	x0, x0, :lo12:.LC1
	mov	w1, 1
	bl	IwDebugTraceIsChannelOn
	uxtb	w0, w0
	cmp	w0, wzr
	cset	w0, ne
	uxtb	w0, w0
	cmp	w0, wzr
	beq	.L56
	.loc 1 337 0 is_stmt 0 discriminator 1
	adrp	x0, .LC1
	add	x0, x0, :lo12:.LC1
	bl	IwDebugTraceSetTraceChannel
	adrp	x0, .LC12
	add	x0, x0, :lo12:.LC12
	bl	IwDebugTraceLinePrintf
.L56:
	.loc 1 339 0 is_stmt 1
	bl	_ZL8_extLoadv
	uxtb	w0, w0
	eor	w0, w0, 1
	uxtb	w0, w0
	cmp	w0, wzr
	beq	.L57
	.loc 1 340 0
	mov	w0, 1
	b	.L58
.L57:
	.loc 1 346 0
	adrp	x0, _ZL5g_Ext
	add	x0, x0, :lo12:_ZL5g_Ext
	ldr	x3, [x0, 80]
	ldr	w2, [sp, 16]
	ldrb	w1, [sp, 23]
	ldr	x0, [sp, 24]
	blr	x3
	str	w0, [sp, 44]
	.loc 1 352 0
	ldr	w0, [sp, 44]
.L58:
.LBE18:
	.loc 1 353 0
	ldr	x30, [sp], 48
	.cfi_restore 30
	ret
	.cfi_endproc
.LFE34:
	.size	s3eAmazonAdsLoadAd, .-s3eAmazonAdsLoadAd
	.section	.rodata
	.align	3
.LC13:
	.string	"calling s3eAmazonAds[11] func: s3eAmazonAdsDestroyAd"
	.section	.text.s3eAmazonAdsDestroyAd,"ax",%progbits
	.align	2
	.global	s3eAmazonAdsDestroyAd
	.hidden	s3eAmazonAdsDestroyAd
	.type	s3eAmazonAdsDestroyAd, %function
s3eAmazonAdsDestroyAd:
.LFB35:
	.loc 1 362 0
	.cfi_startproc
	str	x30, [sp, -48]!
.LCFI14:
	.cfi_def_cfa_offset 48
	.cfi_offset 30, -48
	str	x0, [sp, 24]
.LBB19:
	.loc 1 363 0
	adrp	x0, .LC1
	add	x0, x0, :lo12:.LC1
	mov	w1, 1
	bl	IwDebugTraceIsChannelOn
	uxtb	w0, w0
	cmp	w0, wzr
	cset	w0, ne
	uxtb	w0, w0
	cmp	w0, wzr
	beq	.L60
	.loc 1 363 0 is_stmt 0 discriminator 1
	adrp	x0, .LC1
	add	x0, x0, :lo12:.LC1
	bl	IwDebugTraceSetTraceChannel
	adrp	x0, .LC13
	add	x0, x0, :lo12:.LC13
	bl	IwDebugTraceLinePrintf
.L60:
	.loc 1 365 0 is_stmt 1
	bl	_ZL8_extLoadv
	uxtb	w0, w0
	eor	w0, w0, 1
	uxtb	w0, w0
	cmp	w0, wzr
	beq	.L61
	.loc 1 366 0
	mov	w0, 1
	b	.L62
.L61:
	.loc 1 372 0
	adrp	x0, _ZL5g_Ext
	add	x0, x0, :lo12:_ZL5g_Ext
	ldr	x1, [x0, 88]
	ldr	x0, [sp, 24]
	blr	x1
	str	w0, [sp, 44]
	.loc 1 378 0
	ldr	w0, [sp, 44]
.L62:
.LBE19:
	.loc 1 379 0
	ldr	x30, [sp], 48
	.cfi_restore 30
	ret
	.cfi_endproc
.LFE35:
	.size	s3eAmazonAdsDestroyAd, .-s3eAmazonAdsDestroyAd
	.section	.rodata
	.align	3
.LC14:
	.string	"calling s3eAmazonAds[12] func: s3eAmazonAdsCollapseAd"
	.section	.text.s3eAmazonAdsCollapseAd,"ax",%progbits
	.align	2
	.global	s3eAmazonAdsCollapseAd
	.hidden	s3eAmazonAdsCollapseAd
	.type	s3eAmazonAdsCollapseAd, %function
s3eAmazonAdsCollapseAd:
.LFB36:
	.loc 1 388 0
	.cfi_startproc
	str	x30, [sp, -48]!
.LCFI15:
	.cfi_def_cfa_offset 48
	.cfi_offset 30, -48
	str	x0, [sp, 24]
.LBB20:
	.loc 1 389 0
	adrp	x0, .LC1
	add	x0, x0, :lo12:.LC1
	mov	w1, 1
	bl	IwDebugTraceIsChannelOn
	uxtb	w0, w0
	cmp	w0, wzr
	cset	w0, ne
	uxtb	w0, w0
	cmp	w0, wzr
	beq	.L64
	.loc 1 389 0 is_stmt 0 discriminator 1
	adrp	x0, .LC1
	add	x0, x0, :lo12:.LC1
	bl	IwDebugTraceSetTraceChannel
	adrp	x0, .LC14
	add	x0, x0, :lo12:.LC14
	bl	IwDebugTraceLinePrintf
.L64:
	.loc 1 391 0 is_stmt 1
	bl	_ZL8_extLoadv
	uxtb	w0, w0
	eor	w0, w0, 1
	uxtb	w0, w0
	cmp	w0, wzr
	beq	.L65
	.loc 1 392 0
	mov	w0, 1
	b	.L66
.L65:
	.loc 1 398 0
	adrp	x0, _ZL5g_Ext
	add	x0, x0, :lo12:_ZL5g_Ext
	ldr	x1, [x0, 96]
	ldr	x0, [sp, 24]
	blr	x1
	str	w0, [sp, 44]
	.loc 1 404 0
	ldr	w0, [sp, 44]
.L66:
.LBE20:
	.loc 1 405 0
	ldr	x30, [sp], 48
	.cfi_restore 30
	ret
	.cfi_endproc
.LFE36:
	.size	s3eAmazonAdsCollapseAd, .-s3eAmazonAdsCollapseAd
	.section	.rodata
	.align	3
.LC15:
	.string	"calling s3eAmazonAds[13] func: s3eAmazonAdsLoadInterstitialAd"
	.section	.text.s3eAmazonAdsLoadInterstitialAd,"ax",%progbits
	.align	2
	.global	s3eAmazonAdsLoadInterstitialAd
	.hidden	s3eAmazonAdsLoadInterstitialAd
	.type	s3eAmazonAdsLoadInterstitialAd, %function
s3eAmazonAdsLoadInterstitialAd:
.LFB37:
	.loc 1 414 0
	.cfi_startproc
	str	x30, [sp, -48]!
.LCFI16:
	.cfi_def_cfa_offset 48
	.cfi_offset 30, -48
	str	x0, [sp, 24]
.LBB21:
	.loc 1 415 0
	adrp	x0, .LC1
	add	x0, x0, :lo12:.LC1
	mov	w1, 1
	bl	IwDebugTraceIsChannelOn
	uxtb	w0, w0
	cmp	w0, wzr
	cset	w0, ne
	uxtb	w0, w0
	cmp	w0, wzr
	beq	.L68
	.loc 1 415 0 is_stmt 0 discriminator 1
	adrp	x0, .LC1
	add	x0, x0, :lo12:.LC1
	bl	IwDebugTraceSetTraceChannel
	adrp	x0, .LC15
	add	x0, x0, :lo12:.LC15
	bl	IwDebugTraceLinePrintf
.L68:
	.loc 1 417 0 is_stmt 1
	bl	_ZL8_extLoadv
	uxtb	w0, w0
	eor	w0, w0, 1
	uxtb	w0, w0
	cmp	w0, wzr
	beq	.L69
	.loc 1 418 0
	mov	w0, 1
	b	.L70
.L69:
	.loc 1 424 0
	adrp	x0, _ZL5g_Ext
	add	x0, x0, :lo12:_ZL5g_Ext
	ldr	x1, [x0, 104]
	ldr	x0, [sp, 24]
	blr	x1
	str	w0, [sp, 44]
	.loc 1 430 0
	ldr	w0, [sp, 44]
.L70:
.LBE21:
	.loc 1 431 0
	ldr	x30, [sp], 48
	.cfi_restore 30
	ret
	.cfi_endproc
.LFE37:
	.size	s3eAmazonAdsLoadInterstitialAd, .-s3eAmazonAdsLoadInterstitialAd
	.section	.rodata
	.align	3
.LC16:
	.string	"calling s3eAmazonAds[14] func: s3eAmazonAdsShowAd"
	.section	.text.s3eAmazonAdsShowAd,"ax",%progbits
	.align	2
	.global	s3eAmazonAdsShowAd
	.hidden	s3eAmazonAdsShowAd
	.type	s3eAmazonAdsShowAd, %function
s3eAmazonAdsShowAd:
.LFB38:
	.loc 1 440 0
	.cfi_startproc
	str	x30, [sp, -48]!
.LCFI17:
	.cfi_def_cfa_offset 48
	.cfi_offset 30, -48
	str	x0, [sp, 24]
.LBB22:
	.loc 1 441 0
	adrp	x0, .LC1
	add	x0, x0, :lo12:.LC1
	mov	w1, 1
	bl	IwDebugTraceIsChannelOn
	uxtb	w0, w0
	cmp	w0, wzr
	cset	w0, ne
	uxtb	w0, w0
	cmp	w0, wzr
	beq	.L72
	.loc 1 441 0 is_stmt 0 discriminator 1
	adrp	x0, .LC1
	add	x0, x0, :lo12:.LC1
	bl	IwDebugTraceSetTraceChannel
	adrp	x0, .LC16
	add	x0, x0, :lo12:.LC16
	bl	IwDebugTraceLinePrintf
.L72:
	.loc 1 443 0 is_stmt 1
	bl	_ZL8_extLoadv
	uxtb	w0, w0
	eor	w0, w0, 1
	uxtb	w0, w0
	cmp	w0, wzr
	beq	.L73
	.loc 1 444 0
	mov	w0, 1
	b	.L74
.L73:
	.loc 1 450 0
	adrp	x0, _ZL5g_Ext
	add	x0, x0, :lo12:_ZL5g_Ext
	ldr	x1, [x0, 112]
	ldr	x0, [sp, 24]
	blr	x1
	str	w0, [sp, 44]
	.loc 1 456 0
	ldr	w0, [sp, 44]
.L74:
.LBE22:
	.loc 1 457 0
	ldr	x30, [sp], 48
	.cfi_restore 30
	ret
	.cfi_endproc
.LFE38:
	.size	s3eAmazonAdsShowAd, .-s3eAmazonAdsShowAd
	.section	.rodata
	.align	3
.LC17:
	.string	"calling s3eAmazonAds[15] func: s3eAmazonAdsInspectAd"
	.section	.text.s3eAmazonAdsInspectAd,"ax",%progbits
	.align	2
	.global	s3eAmazonAdsInspectAd
	.hidden	s3eAmazonAdsInspectAd
	.type	s3eAmazonAdsInspectAd, %function
s3eAmazonAdsInspectAd:
.LFB39:
	.loc 1 466 0
	.cfi_startproc
	str	x30, [sp, -48]!
.LCFI18:
	.cfi_def_cfa_offset 48
	.cfi_offset 30, -48
	str	x0, [sp, 24]
	str	x1, [sp, 16]
.LBB23:
	.loc 1 467 0
	adrp	x0, .LC1
	add	x0, x0, :lo12:.LC1
	mov	w1, 1
	bl	IwDebugTraceIsChannelOn
	uxtb	w0, w0
	cmp	w0, wzr
	cset	w0, ne
	uxtb	w0, w0
	cmp	w0, wzr
	beq	.L76
	.loc 1 467 0 is_stmt 0 discriminator 1
	adrp	x0, .LC1
	add	x0, x0, :lo12:.LC1
	bl	IwDebugTraceSetTraceChannel
	adrp	x0, .LC17
	add	x0, x0, :lo12:.LC17
	bl	IwDebugTraceLinePrintf
.L76:
	.loc 1 469 0 is_stmt 1
	bl	_ZL8_extLoadv
	uxtb	w0, w0
	eor	w0, w0, 1
	uxtb	w0, w0
	cmp	w0, wzr
	beq	.L77
	.loc 1 470 0
	mov	w0, 1
	b	.L78
.L77:
	.loc 1 476 0
	adrp	x0, _ZL5g_Ext
	add	x0, x0, :lo12:_ZL5g_Ext
	ldr	x2, [x0, 120]
	ldr	x1, [sp, 16]
	ldr	x0, [sp, 24]
	blr	x2
	str	w0, [sp, 44]
	.loc 1 482 0
	ldr	w0, [sp, 44]
.L78:
.LBE23:
	.loc 1 483 0
	ldr	x30, [sp], 48
	.cfi_restore 30
	ret
	.cfi_endproc
.LFE39:
	.size	s3eAmazonAdsInspectAd, .-s3eAmazonAdsInspectAd
	.text
.Letext0:
	.file 2 "e:/7.10/s3e/h/s3eTypes.h"
	.file 3 "e:/7.10/s3e/h/s3eDebug.h"
	.file 4 "e:/7.10/s3e/h/std/c++/typeinfo.h"
	.file 5 "e:/7.10/s3e/h/std/c++/exception"
	.file 6 "e:/7.10/s3e/h/std/c++/typeinfo"
	.file 7 "e:/7.10/s3e/h/std/c++/stl/_config.h"
	.file 8 "e:/7.10/extensions/s3eamazonads/h/s3eAmazonAds.h"
	.file 9 "e:/7.10/extensions/s3eamazonads/interface/s3eAmazonAds_interface.h"
	.file 10 "<built-in>"